Component: ARM Compiler 5.06 update 1 (build 61) Tool: armlink [4d35a8]

==============================================================================

Section Cross References

    startup_stm32f429xx.o(STACK) refers (Special) to heapauxi.o(.text) for __use_two_region_memory
    startup_stm32f429xx.o(HEAP) refers (Special) to heapauxi.o(.text) for __use_two_region_memory
    startup_stm32f429xx.o(RESET) refers (Special) to heapauxi.o(.text) for __use_two_region_memory
    startup_stm32f429xx.o(RESET) refers to startup_stm32f429xx.o(STACK) for __initial_sp
    startup_stm32f429xx.o(RESET) refers to startup_stm32f429xx.o(.text) for Reset_Handler
    startup_stm32f429xx.o(RESET) refers to timer.o(i.TIM3_IRQHandler) for TIM3_IRQHandler
    startup_stm32f429xx.o(RESET) refers to usmart.o(i.TIM4_IRQHandler) for TIM4_IRQHandler
    startup_stm32f429xx.o(RESET) refers to usart.o(i.USART1_IRQHandler) for USART1_IRQHandler
    startup_stm32f429xx.o(RESET) refers to usart3.o(i.USART3_IRQHandler) for USART3_IRQHandler
    startup_stm32f429xx.o(RESET) refers to sdio_sdcard.o(i.SDIO_IRQHandler) for SDIO_IRQHandler
    startup_stm32f429xx.o(RESET) refers to timer.o(i.TIM5_IRQHandler) for TIM5_IRQHandler
    startup_stm32f429xx.o(RESET) refers to timer.o(i.TIM7_IRQHandler) for TIM7_IRQHandler
    startup_stm32f429xx.o(.text) refers (Special) to heapauxi.o(.text) for __use_two_region_memory
    startup_stm32f429xx.o(.text) refers to __main.o(!!!main) for __main
    startup_stm32f429xx.o(.text) refers to startup_stm32f429xx.o(HEAP) for Heap_Mem
    startup_stm32f429xx.o(.text) refers to startup_stm32f429xx.o(STACK) for Stack_Mem
    test.o(i.main) refers to sys.o(i.Stm32_Clock_Init) for Stm32_Clock_Init
    test.o(i.main) refers to delay.o(i.delay_init) for delay_init
    test.o(i.main) refers to usart.o(i.uart_init) for uart_init
    test.o(i.main) refers to usart3.o(i.usart3_init) for usart3_init
    test.o(i.main) refers to led.o(i.LED_Init) for LED_Init
    test.o(i.main) refers to sdram.o(i.SDRAM_Init) for SDRAM_Init
    test.o(i.main) refers to lcd.o(i.LCD_Init) for LCD_Init
    test.o(i.main) refers to key.o(i.KEY_Init) for KEY_Init
    test.o(i.main) refers to w25qxx.o(i.W25QXX_Init) for W25QXX_Init
    test.o(i.main) refers to malloc.o(i.my_mem_init) for my_mem_init
    test.o(i.main) refers to exfuns.o(i.exfuns_init) for exfuns_init
    test.o(i.main) refers to ff.o(i.f_mount) for f_mount
    test.o(i.main) refers to key.o(i.KEY_Scan) for KEY_Scan
    test.o(i.main) refers to lcd.o(i.LCD_Clear) for LCD_Clear
    test.o(i.main) refers to touch.o(i.TP_Adjust) for TP_Adjust
    test.o(i.main) refers to touch.o(i.TP_Save_Adjdata) for TP_Save_Adjdata
    test.o(i.main) refers to fontupd.o(i.font_init) for font_init
    test.o(i.main) refers to lcd.o(i.LCD_ShowString) for LCD_ShowString
    test.o(i.main) refers to delay.o(i.delay_ms) for delay_ms
    test.o(i.main) refers to lcd.o(i.LCD_Fill) for LCD_Fill
    test.o(i.main) refers to sdio_sdcard.o(i.SD_Init) for SD_Init
    test.o(i.main) refers to fontupd.o(i.update_font) for update_font
    test.o(i.main) refers to common.o(i.atk_8266_test) for atk_8266_test
    test.o(i.main) refers to usmart_config.o(.data) for usmart_dev
    test.o(i.main) refers to touch.o(.data) for tp_dev
    test.o(i.main) refers to exfuns.o(.bss) for fs
    test.o(i.main) refers to lcd.o(.data) for POINT_COLOR
    delay.o(i.delay_init) refers to delay.o(.data) for .data
    delay.o(i.delay_ms) refers to delay.o(i.delay_xms) for delay_xms
    delay.o(i.delay_us) refers to delay.o(.data) for .data
    delay.o(i.delay_xms) refers to delay.o(.data) for .data
    sys.o(i.MY_NVIC_Init) refers to sys.o(i.MY_NVIC_PriorityGroupConfig) for MY_NVIC_PriorityGroupConfig
    sys.o(i.Stm32_Clock_Init) refers to sys.o(i.Sys_Clock_Set) for Sys_Clock_Set
    sys.o(i.Stm32_Clock_Init) refers to sys.o(i.MY_NVIC_SetVectorTable) for MY_NVIC_SetVectorTable
    usart.o(.rev16_text) refers (Special) to use_no_semi_2.o(.text) for __use_no_semihosting
    usart.o(.revsh_text) refers (Special) to use_no_semi_2.o(.text) for __use_no_semihosting
    usart.o(.rrx_text) refers (Special) to use_no_semi_2.o(.text) for __use_no_semihosting
    usart.o(i.USART1_IRQHandler) refers (Special) to use_no_semi_2.o(.text) for __use_no_semihosting
    usart.o(i.USART1_IRQHandler) refers to usart.o(.data) for .data
    usart.o(i.USART1_IRQHandler) refers to usart.o(.bss) for .bss
    usart.o(i._sys_exit) refers (Special) to use_no_semi_2.o(.text) for __use_no_semihosting
    usart.o(i._ttywrch) refers (Special) to use_no_semi_2.o(.text) for __use_no_semihosting
    usart.o(i.fputc) refers (Special) to use_no_semi_2.o(.text) for __use_no_semihosting
    usart.o(i.uart_init) refers (Special) to use_no_semi_2.o(.text) for __use_no_semihosting
    usart.o(i.uart_init) refers to sys.o(i.GPIO_Set) for GPIO_Set
    usart.o(i.uart_init) refers to sys.o(i.GPIO_AF_Set) for GPIO_AF_Set
    usart.o(i.uart_init) refers to sys.o(i.MY_NVIC_Init) for MY_NVIC_Init
    usart.o(.bss) refers (Special) to use_no_semi_2.o(.text) for __use_no_semihosting
    usart.o(.data) refers (Special) to use_no_semi_2.o(.text) for __use_no_semihosting
    usart.o(.data) refers (Special) to use_no_semi_2.o(.text) for __use_no_semihosting
    myiic.o(i.IIC_Ack) refers to delay.o(i.delay_us) for delay_us
    myiic.o(i.IIC_Init) refers to sys.o(i.GPIO_Set) for GPIO_Set
    myiic.o(i.IIC_NAck) refers to delay.o(i.delay_us) for delay_us
    myiic.o(i.IIC_Read_Byte) refers to delay.o(i.delay_us) for delay_us
    myiic.o(i.IIC_Read_Byte) refers to myiic.o(i.IIC_Ack) for IIC_Ack
    myiic.o(i.IIC_Read_Byte) refers to myiic.o(i.IIC_NAck) for IIC_NAck
    myiic.o(i.IIC_Send_Byte) refers to delay.o(i.delay_us) for delay_us
    myiic.o(i.IIC_Start) refers to delay.o(i.delay_us) for delay_us
    myiic.o(i.IIC_Stop) refers to delay.o(i.delay_us) for delay_us
    myiic.o(i.IIC_Wait_Ack) refers to delay.o(i.delay_us) for delay_us
    myiic.o(i.IIC_Wait_Ack) refers to myiic.o(i.IIC_Stop) for IIC_Stop
    24cxx.o(i.AT24CXX_Check) refers to 24cxx.o(i.AT24CXX_ReadOneByte) for AT24CXX_ReadOneByte
    24cxx.o(i.AT24CXX_Check) refers to 24cxx.o(i.AT24CXX_WriteOneByte) for AT24CXX_WriteOneByte
    24cxx.o(i.AT24CXX_Init) refers to myiic.o(i.IIC_Init) for IIC_Init
    24cxx.o(i.AT24CXX_Read) refers to 24cxx.o(i.AT24CXX_ReadOneByte) for AT24CXX_ReadOneByte
    24cxx.o(i.AT24CXX_ReadLenByte) refers to 24cxx.o(i.AT24CXX_ReadOneByte) for AT24CXX_ReadOneByte
    24cxx.o(i.AT24CXX_ReadOneByte) refers to myiic.o(i.IIC_Start) for IIC_Start
    24cxx.o(i.AT24CXX_ReadOneByte) refers to myiic.o(i.IIC_Send_Byte) for IIC_Send_Byte
    24cxx.o(i.AT24CXX_ReadOneByte) refers to myiic.o(i.IIC_Wait_Ack) for IIC_Wait_Ack
    24cxx.o(i.AT24CXX_ReadOneByte) refers to myiic.o(i.IIC_Read_Byte) for IIC_Read_Byte
    24cxx.o(i.AT24CXX_ReadOneByte) refers to myiic.o(i.IIC_Stop) for IIC_Stop
    24cxx.o(i.AT24CXX_Write) refers to 24cxx.o(i.AT24CXX_WriteOneByte) for AT24CXX_WriteOneByte
    24cxx.o(i.AT24CXX_WriteLenByte) refers to 24cxx.o(i.AT24CXX_WriteOneByte) for AT24CXX_WriteOneByte
    24cxx.o(i.AT24CXX_WriteOneByte) refers to myiic.o(i.IIC_Start) for IIC_Start
    24cxx.o(i.AT24CXX_WriteOneByte) refers to myiic.o(i.IIC_Send_Byte) for IIC_Send_Byte
    24cxx.o(i.AT24CXX_WriteOneByte) refers to myiic.o(i.IIC_Wait_Ack) for IIC_Wait_Ack
    24cxx.o(i.AT24CXX_WriteOneByte) refers to myiic.o(i.IIC_Stop) for IIC_Stop
    24cxx.o(i.AT24CXX_WriteOneByte) refers to delay.o(i.delay_ms) for delay_ms
    key.o(i.KEY_Init) refers to sys.o(i.GPIO_Set) for GPIO_Set
    key.o(i.KEY_Scan) refers to delay.o(i.delay_ms) for delay_ms
    key.o(i.KEY_Scan) refers to key.o(.data) for .data
    lcd.o(i.LCD_Clear) refers to ltdc.o(i.LTDC_Clear) for LTDC_Clear
    lcd.o(i.LCD_Clear) refers to lcd.o(i.LCD_SetCursor) for LCD_SetCursor
    lcd.o(i.LCD_Clear) refers to lcd.o(i.LCD_WriteRAM_Prepare) for LCD_WriteRAM_Prepare
    lcd.o(i.LCD_Clear) refers to lcd.o(.bss) for .bss
    lcd.o(i.LCD_Clear) refers to ltdc.o(.bss) for lcdltdc
    lcd.o(i.LCD_Color_Fill) refers to ltdc.o(i.LTDC_Color_Fill) for LTDC_Color_Fill
    lcd.o(i.LCD_Color_Fill) refers to lcd.o(i.LCD_SetCursor) for LCD_SetCursor
    lcd.o(i.LCD_Color_Fill) refers to lcd.o(i.LCD_WriteRAM_Prepare) for LCD_WriteRAM_Prepare
    lcd.o(i.LCD_Color_Fill) refers to ltdc.o(.bss) for lcdltdc
    lcd.o(i.LCD_DisplayOff) refers to ltdc.o(i.LTDC_Switch) for LTDC_Switch
    lcd.o(i.LCD_DisplayOff) refers to lcd.o(i.LCD_WR_REG) for LCD_WR_REG
    lcd.o(i.LCD_DisplayOff) refers to ltdc.o(.bss) for lcdltdc
    lcd.o(i.LCD_DisplayOff) refers to lcd.o(.bss) for .bss
    lcd.o(i.LCD_DisplayOn) refers to ltdc.o(i.LTDC_Switch) for LTDC_Switch
    lcd.o(i.LCD_DisplayOn) refers to lcd.o(i.LCD_WR_REG) for LCD_WR_REG
    lcd.o(i.LCD_DisplayOn) refers to ltdc.o(.bss) for lcdltdc
    lcd.o(i.LCD_DisplayOn) refers to lcd.o(.bss) for .bss
    lcd.o(i.LCD_Display_Dir) refers to ltdc.o(i.LTDC_Display_Dir) for LTDC_Display_Dir
    lcd.o(i.LCD_Display_Dir) refers to lcd.o(i.LCD_Scan_Dir) for LCD_Scan_Dir
    lcd.o(i.LCD_Display_Dir) refers to lcd.o(.bss) for .bss
    lcd.o(i.LCD_Display_Dir) refers to ltdc.o(.bss) for lcdltdc
    lcd.o(i.LCD_DrawLine) refers to lcd.o(i.LCD_DrawPoint) for LCD_DrawPoint
    lcd.o(i.LCD_DrawPoint) refers to ltdc.o(i.LTDC_Draw_Point) for LTDC_Draw_Point
    lcd.o(i.LCD_DrawPoint) refers to lcd.o(i.LCD_SetCursor) for LCD_SetCursor
    lcd.o(i.LCD_DrawPoint) refers to lcd.o(i.LCD_WriteRAM_Prepare) for LCD_WriteRAM_Prepare
    lcd.o(i.LCD_DrawPoint) refers to ltdc.o(.bss) for lcdltdc
    lcd.o(i.LCD_DrawPoint) refers to lcd.o(.data) for .data
    lcd.o(i.LCD_DrawRectangle) refers to lcd.o(i.LCD_DrawLine) for LCD_DrawLine
    lcd.o(i.LCD_Draw_Circle) refers to lcd.o(i.LCD_DrawPoint) for LCD_DrawPoint
    lcd.o(i.LCD_Fast_DrawPoint) refers to ltdc.o(i.LTDC_Draw_Point) for LTDC_Draw_Point
    lcd.o(i.LCD_Fast_DrawPoint) refers to lcd.o(i.LCD_WR_REG) for LCD_WR_REG
    lcd.o(i.LCD_Fast_DrawPoint) refers to lcd.o(i.LCD_WR_DATA) for LCD_WR_DATA
    lcd.o(i.LCD_Fast_DrawPoint) refers to ltdc.o(.bss) for lcdltdc
    lcd.o(i.LCD_Fast_DrawPoint) refers to lcd.o(.bss) for .bss
    lcd.o(i.LCD_Fill) refers to ltdc.o(i.LTDC_Fill) for LTDC_Fill
    lcd.o(i.LCD_Fill) refers to lcd.o(i.LCD_SetCursor) for LCD_SetCursor
    lcd.o(i.LCD_Fill) refers to lcd.o(i.LCD_WriteRAM_Prepare) for LCD_WriteRAM_Prepare
    lcd.o(i.LCD_Fill) refers to ltdc.o(.bss) for lcdltdc
    lcd.o(i.LCD_Init) refers to _printf_percent.o(.ARM.Collect$$_printf_percent$$00000000) for _printf_percent
    lcd.o(i.LCD_Init) refers to _printf_x.o(.ARM.Collect$$_printf_percent$$0000000C) for _printf_x
    lcd.o(i.LCD_Init) refers to _printf_hex_int_ll_ptr.o(.text) for _printf_longlong_hex
    lcd.o(i.LCD_Init) refers to ltdc.o(i.LTDC_PanelID_Read) for LTDC_PanelID_Read
    lcd.o(i.LCD_Init) refers to ltdc.o(i.LTDC_Init) for LTDC_Init
    lcd.o(i.LCD_Init) refers to sys.o(i.GPIO_Set) for GPIO_Set
    lcd.o(i.LCD_Init) refers to sys.o(i.GPIO_AF_Set) for GPIO_AF_Set
    lcd.o(i.LCD_Init) refers to delay.o(i.delay_ms) for delay_ms
    lcd.o(i.LCD_Init) refers to lcd.o(i.LCD_WR_REG) for LCD_WR_REG
    lcd.o(i.LCD_Init) refers to lcd.o(i.LCD_RD_DATA) for LCD_RD_DATA
    lcd.o(i.LCD_Init) refers to __2printf.o(.text) for __2printf
    lcd.o(i.LCD_Init) refers to lcd.o(i.LCD_WR_DATA) for LCD_WR_DATA
    lcd.o(i.LCD_Init) refers to lcd.o(.bss) for .bss
    lcd.o(i.LCD_Init) refers to lcd.o(i.LCD_WriteReg) for LCD_WriteReg
    lcd.o(i.LCD_Init) refers to delay.o(i.delay_us) for delay_us
    lcd.o(i.LCD_Init) refers to lcd.o(i.LCD_SSD_BackLightSet) for LCD_SSD_BackLightSet
    lcd.o(i.LCD_Init) refers to lcd.o(i.LCD_Display_Dir) for LCD_Display_Dir
    lcd.o(i.LCD_Init) refers to lcd.o(i.LCD_Clear) for LCD_Clear
    lcd.o(i.LCD_ReadPoint) refers to ltdc.o(i.LTDC_Read_Point) for LTDC_Read_Point
    lcd.o(i.LCD_ReadPoint) refers to lcd.o(i.LCD_SetCursor) for LCD_SetCursor
    lcd.o(i.LCD_ReadPoint) refers to lcd.o(i.LCD_WR_REG) for LCD_WR_REG
    lcd.o(i.LCD_ReadPoint) refers to lcd.o(i.LCD_RD_DATA) for LCD_RD_DATA
    lcd.o(i.LCD_ReadPoint) refers to lcd.o(.bss) for .bss
    lcd.o(i.LCD_ReadPoint) refers to ltdc.o(.bss) for lcdltdc
    lcd.o(i.LCD_ReadReg) refers to lcd.o(i.LCD_WR_REG) for LCD_WR_REG
    lcd.o(i.LCD_ReadReg) refers to delay.o(i.delay_us) for delay_us
    lcd.o(i.LCD_ReadReg) refers to lcd.o(i.LCD_RD_DATA) for LCD_RD_DATA
    lcd.o(i.LCD_SSD_BackLightSet) refers to lcd.o(i.LCD_WR_REG) for LCD_WR_REG
    lcd.o(i.LCD_SSD_BackLightSet) refers to lcd.o(i.LCD_WR_DATA) for LCD_WR_DATA
    lcd.o(i.LCD_SSD_BackLightSet) refers to dflt_clz.o(x$fpl$dfltu) for __aeabi_ui2d
    lcd.o(i.LCD_SSD_BackLightSet) refers to dmul.o(x$fpl$dmul) for __aeabi_dmul
    lcd.o(i.LCD_SSD_BackLightSet) refers to dfixu.o(x$fpl$dfixu) for __aeabi_d2uiz
    lcd.o(i.LCD_Scan_Dir) refers to lcd.o(i.LCD_WriteReg) for LCD_WriteReg
    lcd.o(i.LCD_Scan_Dir) refers to lcd.o(i.LCD_WR_REG) for LCD_WR_REG
    lcd.o(i.LCD_Scan_Dir) refers to lcd.o(i.LCD_WR_DATA) for LCD_WR_DATA
    lcd.o(i.LCD_Scan_Dir) refers to lcd.o(.bss) for .bss
    lcd.o(i.LCD_SetCursor) refers to lcd.o(i.LCD_WR_REG) for LCD_WR_REG
    lcd.o(i.LCD_SetCursor) refers to lcd.o(i.LCD_WR_DATA) for LCD_WR_DATA
    lcd.o(i.LCD_SetCursor) refers to lcd.o(.bss) for .bss
    lcd.o(i.LCD_Set_Window) refers to lcd.o(i.LCD_WR_REG) for LCD_WR_REG
    lcd.o(i.LCD_Set_Window) refers to lcd.o(i.LCD_WR_DATA) for LCD_WR_DATA
    lcd.o(i.LCD_Set_Window) refers to lcd.o(.bss) for .bss
    lcd.o(i.LCD_ShowChar) refers to lcd.o(i.LCD_Fast_DrawPoint) for LCD_Fast_DrawPoint
    lcd.o(i.LCD_ShowChar) refers to lcd.o(.constdata) for .constdata
    lcd.o(i.LCD_ShowChar) refers to lcd.o(.data) for .data
    lcd.o(i.LCD_ShowChar) refers to lcd.o(.bss) for .bss
    lcd.o(i.LCD_ShowNum) refers to lcd.o(i.LCD_Pow) for LCD_Pow
    lcd.o(i.LCD_ShowNum) refers to lcd.o(i.LCD_ShowChar) for LCD_ShowChar
    lcd.o(i.LCD_ShowString) refers to lcd.o(i.LCD_ShowChar) for LCD_ShowChar
    lcd.o(i.LCD_ShowxNum) refers to lcd.o(i.LCD_Pow) for LCD_Pow
    lcd.o(i.LCD_ShowxNum) refers to lcd.o(i.LCD_ShowChar) for LCD_ShowChar
    lcd.o(i.LCD_WriteRAM_Prepare) refers to lcd.o(.bss) for .bss
    ltdc.o(i.LTDC_Clear) refers to ltdc.o(i.LTDC_Fill) for LTDC_Fill
    ltdc.o(i.LTDC_Clear) refers to ltdc.o(.bss) for .bss
    ltdc.o(i.LTDC_Color_Fill) refers to ltdc.o(.bss) for .bss
    ltdc.o(i.LTDC_Color_Fill) refers to ltdc.o(.data) for .data
    ltdc.o(i.LTDC_Display_Dir) refers to ltdc.o(.bss) for .bss
    ltdc.o(i.LTDC_Draw_Point) refers to ltdc.o(.bss) for .bss
    ltdc.o(i.LTDC_Draw_Point) refers to ltdc.o(.data) for .data
    ltdc.o(i.LTDC_Fill) refers to ltdc.o(.bss) for .bss
    ltdc.o(i.LTDC_Fill) refers to ltdc.o(.data) for .data
    ltdc.o(i.LTDC_Init) refers to ltdc.o(i.LTDC_PanelID_Read) for LTDC_PanelID_Read
    ltdc.o(i.LTDC_Init) refers to sys.o(i.GPIO_Set) for GPIO_Set
    ltdc.o(i.LTDC_Init) refers to sys.o(i.GPIO_AF_Set) for GPIO_AF_Set
    ltdc.o(i.LTDC_Init) refers to ltdc.o(i.LTDC_Clk_Set) for LTDC_Clk_Set
    ltdc.o(i.LTDC_Init) refers to ltdc.o(i.LTDC_Switch) for LTDC_Switch
    ltdc.o(i.LTDC_Init) refers to ltdc.o(i.LTDC_Layer_Parameter_Config) for LTDC_Layer_Parameter_Config
    ltdc.o(i.LTDC_Init) refers to ltdc.o(i.LTDC_Layer_Window_Config) for LTDC_Layer_Window_Config
    ltdc.o(i.LTDC_Init) refers to ltdc.o(i.LTDC_Clear) for LTDC_Clear
    ltdc.o(i.LTDC_Init) refers to ltdc.o(.bss) for .bss
    ltdc.o(i.LTDC_Init) refers to ltdc.o(.ARM.__AT_0xC0000000) for .ARM.__AT_0xC0000000
    ltdc.o(i.LTDC_Init) refers to ltdc.o(.data) for .data
    ltdc.o(i.LTDC_Init) refers to lcd.o(.bss) for lcddev
    ltdc.o(i.LTDC_Layer_Window_Config) refers to ltdc.o(i.LTDC_Layer_Switch) for LTDC_Layer_Switch
    ltdc.o(i.LTDC_PanelID_Read) refers to sys.o(i.GPIO_Set) for GPIO_Set
    ltdc.o(i.LTDC_Read_Point) refers to ltdc.o(.bss) for .bss
    ltdc.o(i.LTDC_Read_Point) refers to ltdc.o(.data) for .data
    ltdc.o(i.LTDC_Select_Layer) refers to ltdc.o(.bss) for .bss
    led.o(i.LED_Init) refers to sys.o(i.GPIO_Set) for GPIO_Set
    sdio_sdcard.o(i.FindSCR) refers to sdio_sdcard.o(i.SDIO_Send_Cmd) for SDIO_Send_Cmd
    sdio_sdcard.o(i.FindSCR) refers to sdio_sdcard.o(i.CmdResp1Error) for CmdResp1Error
    sdio_sdcard.o(i.FindSCR) refers to sdio_sdcard.o(i.SDIO_Send_Data_Cfg) for SDIO_Send_Data_Cfg
    sdio_sdcard.o(i.IsCardProgramming) refers to sdio_sdcard.o(i.SDIO_Send_Cmd) for SDIO_Send_Cmd
    sdio_sdcard.o(i.IsCardProgramming) refers to sdio_sdcard.o(.data) for .data
    sdio_sdcard.o(i.SDEnWideBus) refers to sdio_sdcard.o(i.FindSCR) for FindSCR
    sdio_sdcard.o(i.SDEnWideBus) refers to sdio_sdcard.o(i.SDIO_Send_Cmd) for SDIO_Send_Cmd
    sdio_sdcard.o(i.SDEnWideBus) refers to sdio_sdcard.o(i.CmdResp1Error) for CmdResp1Error
    sdio_sdcard.o(i.SDEnWideBus) refers to sdio_sdcard.o(.data) for .data
    sdio_sdcard.o(i.SDIO_IRQHandler) refers to sdio_sdcard.o(i.SD_ProcessIRQSrc) for SD_ProcessIRQSrc
    sdio_sdcard.o(i.SD_EnableWideBusOperation) refers to sdio_sdcard.o(i.SDEnWideBus) for SDEnWideBus
    sdio_sdcard.o(i.SD_EnableWideBusOperation) refers to sdio_sdcard.o(.data) for .data
    sdio_sdcard.o(i.SD_GetCardInfo) refers to sdio_sdcard.o(.data) for .data
    sdio_sdcard.o(i.SD_GetCardInfo) refers to sdio_sdcard.o(.bss) for .bss
    sdio_sdcard.o(i.SD_GetState) refers to sdio_sdcard.o(i.SD_SendStatus) for SD_SendStatus
    sdio_sdcard.o(i.SD_Init) refers to sys.o(i.GPIO_Set) for GPIO_Set
    sdio_sdcard.o(i.SD_Init) refers to sys.o(i.GPIO_AF_Set) for GPIO_AF_Set
    sdio_sdcard.o(i.SD_Init) refers to sys.o(i.MY_NVIC_Init) for MY_NVIC_Init
    sdio_sdcard.o(i.SD_Init) refers to sdio_sdcard.o(i.SD_PowerON) for SD_PowerON
    sdio_sdcard.o(i.SD_Init) refers to sdio_sdcard.o(i.SD_InitializeCards) for SD_InitializeCards
    sdio_sdcard.o(i.SD_Init) refers to sdio_sdcard.o(i.SD_GetCardInfo) for SD_GetCardInfo
    sdio_sdcard.o(i.SD_Init) refers to sdio_sdcard.o(i.SD_SelectDeselect) for SD_SelectDeselect
    sdio_sdcard.o(i.SD_Init) refers to sdio_sdcard.o(i.SD_EnableWideBusOperation) for SD_EnableWideBusOperation
    sdio_sdcard.o(i.SD_Init) refers to sdio_sdcard.o(i.SDIO_Clock_Set) for SDIO_Clock_Set
    sdio_sdcard.o(i.SD_Init) refers to sdio_sdcard.o(i.SD_SetDeviceMode) for SD_SetDeviceMode
    sdio_sdcard.o(i.SD_Init) refers to sdio_sdcard.o(.bss) for .bss
    sdio_sdcard.o(i.SD_Init) refers to sdio_sdcard.o(.data) for .data
    sdio_sdcard.o(i.SD_InitializeCards) refers to sdio_sdcard.o(i.SDIO_Send_Cmd) for SDIO_Send_Cmd
    sdio_sdcard.o(i.SD_InitializeCards) refers to sdio_sdcard.o(i.CmdResp2Error) for CmdResp2Error
    sdio_sdcard.o(i.SD_InitializeCards) refers to sdio_sdcard.o(i.CmdResp6Error) for CmdResp6Error
    sdio_sdcard.o(i.SD_InitializeCards) refers to sdio_sdcard.o(.data) for .data
    sdio_sdcard.o(i.SD_InitializeCards) refers to sdio_sdcard.o(.bss) for .bss
    sdio_sdcard.o(i.SD_PowerON) refers to sdio_sdcard.o(i.SDIO_Clock_Set) for SDIO_Clock_Set
    sdio_sdcard.o(i.SD_PowerON) refers to sdio_sdcard.o(i.SDIO_Send_Cmd) for SDIO_Send_Cmd
    sdio_sdcard.o(i.SD_PowerON) refers to sdio_sdcard.o(i.CmdError) for CmdError
    sdio_sdcard.o(i.SD_PowerON) refers to sdio_sdcard.o(i.CmdResp7Error) for CmdResp7Error
    sdio_sdcard.o(i.SD_PowerON) refers to sdio_sdcard.o(i.CmdResp1Error) for CmdResp1Error
    sdio_sdcard.o(i.SD_PowerON) refers to sdio_sdcard.o(i.CmdResp3Error) for CmdResp3Error
    sdio_sdcard.o(i.SD_PowerON) refers to sdio_sdcard.o(.data) for .data
    sdio_sdcard.o(i.SD_ProcessIRQSrc) refers to sdio_sdcard.o(i.SDIO_Send_Cmd) for SDIO_Send_Cmd
    sdio_sdcard.o(i.SD_ProcessIRQSrc) refers to sdio_sdcard.o(i.CmdResp1Error) for CmdResp1Error
    sdio_sdcard.o(i.SD_ProcessIRQSrc) refers to sdio_sdcard.o(.data) for .data
    sdio_sdcard.o(i.SD_ReadBlocks) refers to sdio_sdcard.o(i.SDIO_Send_Cmd) for SDIO_Send_Cmd
    sdio_sdcard.o(i.SD_ReadBlocks) refers to sdio_sdcard.o(i.CmdResp1Error) for CmdResp1Error
    sdio_sdcard.o(i.SD_ReadBlocks) refers to sdio_sdcard.o(i.SDIO_Send_Data_Cfg) for SDIO_Send_Data_Cfg
    sdio_sdcard.o(i.SD_ReadBlocks) refers to sys.o(i.INTX_DISABLE) for INTX_DISABLE
    sdio_sdcard.o(i.SD_ReadBlocks) refers to sys.o(i.INTX_ENABLE) for INTX_ENABLE
    sdio_sdcard.o(i.SD_ReadBlocks) refers to sdio_sdcard.o(i.SD_DMA_Config) for SD_DMA_Config
    sdio_sdcard.o(i.SD_ReadBlocks) refers to sdio_sdcard.o(.data) for .data
    sdio_sdcard.o(i.SD_ReadDisk) refers to sdio_sdcard.o(i.SD_ReadBlocks) for SD_ReadBlocks
    sdio_sdcard.o(i.SD_ReadDisk) refers to rt_memcpy_v6.o(.text) for __aeabi_memcpy
    sdio_sdcard.o(i.SD_ReadDisk) refers to sdio_sdcard.o(.data) for .data
    sdio_sdcard.o(i.SD_ReadDisk) refers to sdio_sdcard.o(.bss) for .bss
    sdio_sdcard.o(i.SD_SelectDeselect) refers to sdio_sdcard.o(i.SDIO_Send_Cmd) for SDIO_Send_Cmd
    sdio_sdcard.o(i.SD_SelectDeselect) refers to sdio_sdcard.o(i.CmdResp1Error) for CmdResp1Error
    sdio_sdcard.o(i.SD_SendStatus) refers to sdio_sdcard.o(i.SDIO_Send_Cmd) for SDIO_Send_Cmd
    sdio_sdcard.o(i.SD_SendStatus) refers to sdio_sdcard.o(i.CmdResp1Error) for CmdResp1Error
    sdio_sdcard.o(i.SD_SendStatus) refers to sdio_sdcard.o(.data) for .data
    sdio_sdcard.o(i.SD_SetDeviceMode) refers to sdio_sdcard.o(.data) for .data
    sdio_sdcard.o(i.SD_WriteBlocks) refers to sdio_sdcard.o(i.SDIO_Send_Cmd) for SDIO_Send_Cmd
    sdio_sdcard.o(i.SD_WriteBlocks) refers to sdio_sdcard.o(i.CmdResp1Error) for CmdResp1Error
    sdio_sdcard.o(i.SD_WriteBlocks) refers to sdio_sdcard.o(i.SDIO_Send_Data_Cfg) for SDIO_Send_Data_Cfg
    sdio_sdcard.o(i.SD_WriteBlocks) refers to sys.o(i.INTX_DISABLE) for INTX_DISABLE
    sdio_sdcard.o(i.SD_WriteBlocks) refers to sys.o(i.INTX_ENABLE) for INTX_ENABLE
    sdio_sdcard.o(i.SD_WriteBlocks) refers to sdio_sdcard.o(i.SD_DMA_Config) for SD_DMA_Config
    sdio_sdcard.o(i.SD_WriteBlocks) refers to sdio_sdcard.o(i.SD_Init) for SD_Init
    sdio_sdcard.o(i.SD_WriteBlocks) refers to sdio_sdcard.o(i.IsCardProgramming) for IsCardProgramming
    sdio_sdcard.o(i.SD_WriteBlocks) refers to sdio_sdcard.o(.data) for .data
    sdio_sdcard.o(i.SD_WriteDisk) refers to rt_memcpy_v6.o(.text) for __aeabi_memcpy
    sdio_sdcard.o(i.SD_WriteDisk) refers to sdio_sdcard.o(i.SD_WriteBlocks) for SD_WriteBlocks
    sdio_sdcard.o(i.SD_WriteDisk) refers to sdio_sdcard.o(.data) for .data
    sdio_sdcard.o(i.SD_WriteDisk) refers to sdio_sdcard.o(.bss) for .bss
    sdram.o(i.SDRAM_Init) refers to sys.o(i.GPIO_Set) for GPIO_Set
    sdram.o(i.SDRAM_Init) refers to sys.o(i.GPIO_AF_Set) for GPIO_AF_Set
    sdram.o(i.SDRAM_Init) refers to sdram.o(i.SDRAM_Send_Cmd) for SDRAM_Send_Cmd
    sdram.o(i.SDRAM_Init) refers to delay.o(i.delay_us) for delay_us
    spi.o(i.SPI2_Init) refers to sys.o(i.GPIO_Set) for GPIO_Set
    spi.o(i.SPI2_Init) refers to sys.o(i.GPIO_AF_Set) for GPIO_AF_Set
    spi.o(i.SPI2_Init) refers to spi.o(i.SPI2_ReadWriteByte) for SPI2_ReadWriteByte
    spi.o(i.SPI5_Init) refers to sys.o(i.GPIO_Set) for GPIO_Set
    spi.o(i.SPI5_Init) refers to sys.o(i.GPIO_AF_Set) for GPIO_AF_Set
    spi.o(i.SPI5_Init) refers to spi.o(i.SPI5_ReadWriteByte) for SPI5_ReadWriteByte
    timer.o(i.TIM3_Int_Init) refers to sys.o(i.MY_NVIC_Init) for MY_NVIC_Init
    timer.o(i.TIM3_PWM_Init) refers to sys.o(i.GPIO_Set) for GPIO_Set
    timer.o(i.TIM3_PWM_Init) refers to sys.o(i.GPIO_AF_Set) for GPIO_AF_Set
    timer.o(i.TIM5_CH1_Cap_Init) refers to sys.o(i.GPIO_Set) for GPIO_Set
    timer.o(i.TIM5_CH1_Cap_Init) refers to sys.o(i.GPIO_AF_Set) for GPIO_AF_Set
    timer.o(i.TIM5_CH1_Cap_Init) refers to sys.o(i.MY_NVIC_Init) for MY_NVIC_Init
    timer.o(i.TIM5_IRQHandler) refers to timer.o(.data) for .data
    timer.o(i.TIM7_IRQHandler) refers to usart3.o(.data) for USART3_RX_STA
    timer.o(i.TIM7_Int_Init) refers to sys.o(i.MY_NVIC_Init) for MY_NVIC_Init
    timer.o(i.TIM9_CH2_PWM_Init) refers to sys.o(i.GPIO_Set) for GPIO_Set
    timer.o(i.TIM9_CH2_PWM_Init) refers to sys.o(i.GPIO_AF_Set) for GPIO_AF_Set
    ctiic.o(i.CT_Delay) refers to delay.o(i.delay_us) for delay_us
    ctiic.o(i.CT_IIC_Ack) refers to delay.o(i.delay_us) for delay_us
    ctiic.o(i.CT_IIC_Init) refers to sys.o(i.GPIO_Set) for GPIO_Set
    ctiic.o(i.CT_IIC_NAck) refers to delay.o(i.delay_us) for delay_us
    ctiic.o(i.CT_IIC_Read_Byte) refers to delay.o(i.delay_us) for delay_us
    ctiic.o(i.CT_IIC_Read_Byte) refers to ctiic.o(i.CT_IIC_Ack) for CT_IIC_Ack
    ctiic.o(i.CT_IIC_Read_Byte) refers to ctiic.o(i.CT_IIC_NAck) for CT_IIC_NAck
    ctiic.o(i.CT_IIC_Send_Byte) refers to delay.o(i.delay_us) for delay_us
    ctiic.o(i.CT_IIC_Start) refers to delay.o(i.delay_us) for delay_us
    ctiic.o(i.CT_IIC_Stop) refers to delay.o(i.delay_us) for delay_us
    ctiic.o(i.CT_IIC_Wait_Ack) refers to ctiic.o(i.CT_IIC_Stop) for CT_IIC_Stop
    ctiic.o(i.CT_IIC_Wait_Ack) refers to delay.o(i.delay_us) for delay_us
    ft5206.o(i.FT5206_Init) refers to _printf_percent.o(.ARM.Collect$$_printf_percent$$00000000) for _printf_percent
    ft5206.o(i.FT5206_Init) refers to _printf_x.o(.ARM.Collect$$_printf_percent$$0000000C) for _printf_x
    ft5206.o(i.FT5206_Init) refers to _printf_hex_int_ll_ptr.o(.text) for _printf_longlong_hex
    ft5206.o(i.FT5206_Init) refers to sys.o(i.GPIO_Set) for GPIO_Set
    ft5206.o(i.FT5206_Init) refers to ctiic.o(i.CT_IIC_Init) for CT_IIC_Init
    ft5206.o(i.FT5206_Init) refers to delay.o(i.delay_ms) for delay_ms
    ft5206.o(i.FT5206_Init) refers to ft5206.o(i.FT5206_WR_Reg) for FT5206_WR_Reg
    ft5206.o(i.FT5206_Init) refers to ft5206.o(i.FT5206_RD_Reg) for FT5206_RD_Reg
    ft5206.o(i.FT5206_Init) refers to __2printf.o(.text) for __2printf
    ft5206.o(i.FT5206_RD_Reg) refers to ctiic.o(i.CT_IIC_Start) for CT_IIC_Start
    ft5206.o(i.FT5206_RD_Reg) refers to ctiic.o(i.CT_IIC_Send_Byte) for CT_IIC_Send_Byte
    ft5206.o(i.FT5206_RD_Reg) refers to ctiic.o(i.CT_IIC_Wait_Ack) for CT_IIC_Wait_Ack
    ft5206.o(i.FT5206_RD_Reg) refers to ctiic.o(i.CT_IIC_Read_Byte) for CT_IIC_Read_Byte
    ft5206.o(i.FT5206_RD_Reg) refers to ctiic.o(i.CT_IIC_Stop) for CT_IIC_Stop
    ft5206.o(i.FT5206_Scan) refers to ft5206.o(i.FT5206_RD_Reg) for FT5206_RD_Reg
    ft5206.o(i.FT5206_Scan) refers to ft5206.o(.data) for .data
    ft5206.o(i.FT5206_Scan) refers to touch.o(.data) for tp_dev
    ft5206.o(i.FT5206_Scan) refers to ft5206.o(.constdata) for .constdata
    ft5206.o(i.FT5206_Scan) refers to lcd.o(.bss) for lcddev
    ft5206.o(i.FT5206_WR_Reg) refers to ctiic.o(i.CT_IIC_Start) for CT_IIC_Start
    ft5206.o(i.FT5206_WR_Reg) refers to ctiic.o(i.CT_IIC_Send_Byte) for CT_IIC_Send_Byte
    ft5206.o(i.FT5206_WR_Reg) refers to ctiic.o(i.CT_IIC_Wait_Ack) for CT_IIC_Wait_Ack
    ft5206.o(i.FT5206_WR_Reg) refers to ctiic.o(i.CT_IIC_Stop) for CT_IIC_Stop
    gt9147.o(i.GT9147_Init) refers to _printf_percent.o(.ARM.Collect$$_printf_percent$$00000000) for _printf_percent
    gt9147.o(i.GT9147_Init) refers to _printf_s.o(.ARM.Collect$$_printf_percent$$00000014) for _printf_s
    gt9147.o(i.GT9147_Init) refers to _printf_str.o(.text) for _printf_str
    gt9147.o(i.GT9147_Init) refers to _printf_d.o(.ARM.Collect$$_printf_percent$$00000009) for _printf_d
    gt9147.o(i.GT9147_Init) refers to _printf_dec.o(.text) for _printf_int_dec
    gt9147.o(i.GT9147_Init) refers to sys.o(i.GPIO_Set) for GPIO_Set
    gt9147.o(i.GT9147_Init) refers to ctiic.o(i.CT_IIC_Init) for CT_IIC_Init
    gt9147.o(i.GT9147_Init) refers to delay.o(i.delay_ms) for delay_ms
    gt9147.o(i.GT9147_Init) refers to gt9147.o(i.GT9147_RD_Reg) for GT9147_RD_Reg
    gt9147.o(i.GT9147_Init) refers to __2printf.o(.text) for __2printf
    gt9147.o(i.GT9147_Init) refers to strcmpv7m.o(.text) for strcmp
    gt9147.o(i.GT9147_Init) refers to gt9147.o(i.GT9147_WR_Reg) for GT9147_WR_Reg
    gt9147.o(i.GT9147_Init) refers to gt9147.o(i.GT9147_Send_Cfg) for GT9147_Send_Cfg
    gt9147.o(i.GT9147_Init) refers to lcd.o(.bss) for lcddev
    gt9147.o(i.GT9147_RD_Reg) refers to ctiic.o(i.CT_IIC_Start) for CT_IIC_Start
    gt9147.o(i.GT9147_RD_Reg) refers to ctiic.o(i.CT_IIC_Send_Byte) for CT_IIC_Send_Byte
    gt9147.o(i.GT9147_RD_Reg) refers to ctiic.o(i.CT_IIC_Wait_Ack) for CT_IIC_Wait_Ack
    gt9147.o(i.GT9147_RD_Reg) refers to ctiic.o(i.CT_IIC_Read_Byte) for CT_IIC_Read_Byte
    gt9147.o(i.GT9147_RD_Reg) refers to ctiic.o(i.CT_IIC_Stop) for CT_IIC_Stop
    gt9147.o(i.GT9147_Scan) refers to gt9147.o(i.GT9147_RD_Reg) for GT9147_RD_Reg
    gt9147.o(i.GT9147_Scan) refers to gt9147.o(i.GT9147_WR_Reg) for GT9147_WR_Reg
    gt9147.o(i.GT9147_Scan) refers to gt9147.o(.data) for .data
    gt9147.o(i.GT9147_Scan) refers to touch.o(.data) for tp_dev
    gt9147.o(i.GT9147_Scan) refers to lcd.o(.bss) for lcddev
    gt9147.o(i.GT9147_Scan) refers to gt9147.o(.constdata) for .constdata
    gt9147.o(i.GT9147_Send_Cfg) refers to gt9147.o(i.GT9147_WR_Reg) for GT9147_WR_Reg
    gt9147.o(i.GT9147_Send_Cfg) refers to gt9147.o(.constdata) for .constdata
    gt9147.o(i.GT9147_WR_Reg) refers to ctiic.o(i.CT_IIC_Start) for CT_IIC_Start
    gt9147.o(i.GT9147_WR_Reg) refers to ctiic.o(i.CT_IIC_Send_Byte) for CT_IIC_Send_Byte
    gt9147.o(i.GT9147_WR_Reg) refers to ctiic.o(i.CT_IIC_Wait_Ack) for CT_IIC_Wait_Ack
    gt9147.o(i.GT9147_WR_Reg) refers to ctiic.o(i.CT_IIC_Stop) for CT_IIC_Stop
    ott2001a.o(i.OTT2001A_Init) refers to _printf_percent.o(.ARM.Collect$$_printf_percent$$00000000) for _printf_percent
    ott2001a.o(i.OTT2001A_Init) refers to _printf_x.o(.ARM.Collect$$_printf_percent$$0000000C) for _printf_x
    ott2001a.o(i.OTT2001A_Init) refers to _printf_hex_int_ll_ptr.o(.text) for _printf_longlong_hex
    ott2001a.o(i.OTT2001A_Init) refers to sys.o(i.GPIO_Set) for GPIO_Set
    ott2001a.o(i.OTT2001A_Init) refers to ctiic.o(i.CT_IIC_Init) for CT_IIC_Init
    ott2001a.o(i.OTT2001A_Init) refers to delay.o(i.delay_ms) for delay_ms
    ott2001a.o(i.OTT2001A_Init) refers to ott2001a.o(i.OTT2001A_SensorControl) for OTT2001A_SensorControl
    ott2001a.o(i.OTT2001A_Init) refers to ott2001a.o(i.OTT2001A_RD_Reg) for OTT2001A_RD_Reg
    ott2001a.o(i.OTT2001A_Init) refers to __2printf.o(.text) for __2printf
    ott2001a.o(i.OTT2001A_RD_Reg) refers to ctiic.o(i.CT_IIC_Start) for CT_IIC_Start
    ott2001a.o(i.OTT2001A_RD_Reg) refers to ctiic.o(i.CT_IIC_Send_Byte) for CT_IIC_Send_Byte
    ott2001a.o(i.OTT2001A_RD_Reg) refers to ctiic.o(i.CT_IIC_Wait_Ack) for CT_IIC_Wait_Ack
    ott2001a.o(i.OTT2001A_RD_Reg) refers to ctiic.o(i.CT_IIC_Read_Byte) for CT_IIC_Read_Byte
    ott2001a.o(i.OTT2001A_RD_Reg) refers to ctiic.o(i.CT_IIC_Stop) for CT_IIC_Stop
    ott2001a.o(i.OTT2001A_Scan) refers to ott2001a.o(i.OTT2001A_RD_Reg) for OTT2001A_RD_Reg
    ott2001a.o(i.OTT2001A_Scan) refers to dflt_clz.o(x$fpl$dfltu) for __aeabi_ui2d
    ott2001a.o(i.OTT2001A_Scan) refers to dmul.o(x$fpl$dmul) for __aeabi_dmul
    ott2001a.o(i.OTT2001A_Scan) refers to dfixu.o(x$fpl$dfixu) for __aeabi_d2uiz
    ott2001a.o(i.OTT2001A_Scan) refers to daddsub_clz.o(x$fpl$drsb) for __aeabi_drsub
    ott2001a.o(i.OTT2001A_Scan) refers to ott2001a.o(.data) for .data
    ott2001a.o(i.OTT2001A_Scan) refers to touch.o(.data) for tp_dev
    ott2001a.o(i.OTT2001A_Scan) refers to ott2001a.o(.constdata) for .constdata
    ott2001a.o(i.OTT2001A_SensorControl) refers to ott2001a.o(i.OTT2001A_WR_Reg) for OTT2001A_WR_Reg
    ott2001a.o(i.OTT2001A_WR_Reg) refers to ctiic.o(i.CT_IIC_Start) for CT_IIC_Start
    ott2001a.o(i.OTT2001A_WR_Reg) refers to ctiic.o(i.CT_IIC_Send_Byte) for CT_IIC_Send_Byte
    ott2001a.o(i.OTT2001A_WR_Reg) refers to ctiic.o(i.CT_IIC_Wait_Ack) for CT_IIC_Wait_Ack
    ott2001a.o(i.OTT2001A_WR_Reg) refers to ctiic.o(i.CT_IIC_Stop) for CT_IIC_Stop
    touch.o(i.TP_Adj_Info_Show) refers to lcd.o(i.LCD_ShowString) for LCD_ShowString
    touch.o(i.TP_Adj_Info_Show) refers to lcd.o(i.LCD_ShowNum) for LCD_ShowNum
    touch.o(i.TP_Adj_Info_Show) refers to lcd.o(.data) for POINT_COLOR
    touch.o(i.TP_Adj_Info_Show) refers to lcd.o(.bss) for lcddev
    touch.o(i.TP_Adjust) refers to lcd.o(i.LCD_Clear) for LCD_Clear
    touch.o(i.TP_Adjust) refers to lcd.o(i.LCD_ShowString) for LCD_ShowString
    touch.o(i.TP_Adjust) refers to touch.o(i.TP_Drow_Touch_Point) for TP_Drow_Touch_Point
    touch.o(i.TP_Adjust) refers to delay.o(i.delay_ms) for delay_ms
    touch.o(i.TP_Adjust) refers to touch.o(i.TP_Get_Adjdata) for TP_Get_Adjdata
    touch.o(i.TP_Adjust) refers to dflt_clz.o(x$fpl$dfltu) for __aeabi_ui2d
    touch.o(i.TP_Adjust) refers to sqrt.o(i.__hardfp_sqrt) for __hardfp_sqrt
    touch.o(i.TP_Adjust) refers to dfixu.o(x$fpl$dfixu) for __aeabi_d2uiz
    touch.o(i.TP_Adjust) refers to f2d.o(x$fpl$f2d) for __aeabi_f2d
    touch.o(i.TP_Adjust) refers to dleqf.o(x$fpl$dleqf) for __aeabi_cdcmple
    touch.o(i.TP_Adjust) refers to drleqf.o(x$fpl$drleqf) for __aeabi_cdrcmple
    touch.o(i.TP_Adjust) refers to dmul.o(x$fpl$dmul) for __aeabi_dmul
    touch.o(i.TP_Adjust) refers to touch.o(i.TP_Adj_Info_Show) for TP_Adj_Info_Show
    touch.o(i.TP_Adjust) refers to lcd.o(.data) for POINT_COLOR
    touch.o(i.TP_Adjust) refers to touch.o(.constdata) for .constdata
    touch.o(i.TP_Adjust) refers to touch.o(.data) for .data
    touch.o(i.TP_Adjust) refers to lcd.o(.bss) for lcddev
    touch.o(i.TP_Adjust) refers to touch.o(i.TP_Save_Adjdata) for TP_Save_Adjdata
    touch.o(i.TP_Draw_Big_Point) refers to lcd.o(i.LCD_DrawPoint) for LCD_DrawPoint
    touch.o(i.TP_Draw_Big_Point) refers to lcd.o(.data) for POINT_COLOR
    touch.o(i.TP_Drow_Touch_Point) refers to lcd.o(i.LCD_DrawLine) for LCD_DrawLine
    touch.o(i.TP_Drow_Touch_Point) refers to lcd.o(i.LCD_DrawPoint) for LCD_DrawPoint
    touch.o(i.TP_Drow_Touch_Point) refers to lcd.o(i.LCD_Draw_Circle) for LCD_Draw_Circle
    touch.o(i.TP_Drow_Touch_Point) refers to lcd.o(.data) for POINT_COLOR
    touch.o(i.TP_Get_Adjdata) refers to 24cxx.o(i.AT24CXX_ReadOneByte) for AT24CXX_ReadOneByte
    touch.o(i.TP_Get_Adjdata) refers to 24cxx.o(i.AT24CXX_ReadLenByte) for AT24CXX_ReadLenByte
    touch.o(i.TP_Get_Adjdata) refers to touch.o(.data) for .data
    touch.o(i.TP_Init) refers to sys.o(i.GPIO_Set) for GPIO_Set
    touch.o(i.TP_Init) refers to touch.o(i.TP_Read_XY) for TP_Read_XY
    touch.o(i.TP_Init) refers to 24cxx.o(i.AT24CXX_Init) for AT24CXX_Init
    touch.o(i.TP_Init) refers to touch.o(i.TP_Get_Adjdata) for TP_Get_Adjdata
    touch.o(i.TP_Init) refers to gt9147.o(i.GT9147_Init) for GT9147_Init
    touch.o(i.TP_Init) refers to ott2001a.o(i.OTT2001A_Init) for OTT2001A_Init
    touch.o(i.TP_Init) refers to ft5206.o(i.FT5206_Init) for FT5206_Init
    touch.o(i.TP_Init) refers to lcd.o(i.LCD_Clear) for LCD_Clear
    touch.o(i.TP_Init) refers to touch.o(i.TP_Adjust) for TP_Adjust
    touch.o(i.TP_Init) refers to touch.o(i.TP_Save_Adjdata) for TP_Save_Adjdata
    touch.o(i.TP_Init) refers to lcd.o(.bss) for lcddev
    touch.o(i.TP_Init) refers to touch.o(.data) for .data
    touch.o(i.TP_Init) refers to ott2001a.o(i.OTT2001A_Scan) for OTT2001A_Scan
    touch.o(i.TP_Init) refers to gt9147.o(i.GT9147_Scan) for GT9147_Scan
    touch.o(i.TP_Init) refers to ft5206.o(i.FT5206_Scan) for FT5206_Scan
    touch.o(i.TP_Read_AD) refers to touch.o(i.TP_Write_Byte) for TP_Write_Byte
    touch.o(i.TP_Read_AD) refers to delay.o(i.delay_us) for delay_us
    touch.o(i.TP_Read_XOY) refers to touch.o(i.TP_Read_AD) for TP_Read_AD
    touch.o(i.TP_Read_XY) refers to touch.o(i.TP_Read_XOY) for TP_Read_XOY
    touch.o(i.TP_Read_XY) refers to touch.o(.data) for .data
    touch.o(i.TP_Read_XY2) refers to touch.o(i.TP_Read_XY) for TP_Read_XY
    touch.o(i.TP_Save_Adjdata) refers to 24cxx.o(i.AT24CXX_WriteLenByte) for AT24CXX_WriteLenByte
    touch.o(i.TP_Save_Adjdata) refers to 24cxx.o(i.AT24CXX_WriteOneByte) for AT24CXX_WriteOneByte
    touch.o(i.TP_Save_Adjdata) refers to touch.o(.data) for .data
    touch.o(i.TP_Scan) refers to touch.o(i.TP_Read_XY2) for TP_Read_XY2
    touch.o(i.TP_Scan) refers to touch.o(.data) for .data
    touch.o(i.TP_Write_Byte) refers to delay.o(i.delay_us) for delay_us
    touch.o(.constdata) refers to touch.o(.conststring) for .conststring
    touch.o(.data) refers to touch.o(i.TP_Init) for TP_Init
    touch.o(.data) refers to touch.o(i.TP_Scan) for TP_Scan
    touch.o(.data) refers to touch.o(i.TP_Adjust) for TP_Adjust
    w25qxx.o(i.W25QXX_Erase_Chip) refers to w25qxx.o(i.W25QXX_Write_Enable) for W25QXX_Write_Enable
    w25qxx.o(i.W25QXX_Erase_Chip) refers to w25qxx.o(i.W25QXX_Wait_Busy) for W25QXX_Wait_Busy
    w25qxx.o(i.W25QXX_Erase_Chip) refers to spi.o(i.SPI5_ReadWriteByte) for SPI5_ReadWriteByte
    w25qxx.o(i.W25QXX_Erase_Sector) refers to _printf_percent.o(.ARM.Collect$$_printf_percent$$00000000) for _printf_percent
    w25qxx.o(i.W25QXX_Erase_Sector) refers to _printf_x.o(.ARM.Collect$$_printf_percent$$0000000C) for _printf_x
    w25qxx.o(i.W25QXX_Erase_Sector) refers to _printf_hex_int_ll_ptr.o(.text) for _printf_longlong_hex
    w25qxx.o(i.W25QXX_Erase_Sector) refers to __2printf.o(.text) for __2printf
    w25qxx.o(i.W25QXX_Erase_Sector) refers to w25qxx.o(i.W25QXX_Write_Enable) for W25QXX_Write_Enable
    w25qxx.o(i.W25QXX_Erase_Sector) refers to w25qxx.o(i.W25QXX_Wait_Busy) for W25QXX_Wait_Busy
    w25qxx.o(i.W25QXX_Erase_Sector) refers to spi.o(i.SPI5_ReadWriteByte) for SPI5_ReadWriteByte
    w25qxx.o(i.W25QXX_Erase_Sector) refers to w25qxx.o(.data) for .data
    w25qxx.o(i.W25QXX_Init) refers to sys.o(i.GPIO_Set) for GPIO_Set
    w25qxx.o(i.W25QXX_Init) refers to spi.o(i.SPI5_Init) for SPI5_Init
    w25qxx.o(i.W25QXX_Init) refers to spi.o(i.SPI5_SetSpeed) for SPI5_SetSpeed
    w25qxx.o(i.W25QXX_Init) refers to w25qxx.o(i.W25QXX_ReadID) for W25QXX_ReadID
    w25qxx.o(i.W25QXX_Init) refers to w25qxx.o(i.W25QXX_ReadSR) for W25QXX_ReadSR
    w25qxx.o(i.W25QXX_Init) refers to spi.o(i.SPI5_ReadWriteByte) for SPI5_ReadWriteByte
    w25qxx.o(i.W25QXX_Init) refers to w25qxx.o(.data) for .data
    w25qxx.o(i.W25QXX_PowerDown) refers to spi.o(i.SPI5_ReadWriteByte) for SPI5_ReadWriteByte
    w25qxx.o(i.W25QXX_PowerDown) refers to delay.o(i.delay_us) for delay_us
    w25qxx.o(i.W25QXX_Read) refers to spi.o(i.SPI5_ReadWriteByte) for SPI5_ReadWriteByte
    w25qxx.o(i.W25QXX_Read) refers to w25qxx.o(.data) for .data
    w25qxx.o(i.W25QXX_ReadID) refers to spi.o(i.SPI5_ReadWriteByte) for SPI5_ReadWriteByte
    w25qxx.o(i.W25QXX_ReadSR) refers to spi.o(i.SPI5_ReadWriteByte) for SPI5_ReadWriteByte
    w25qxx.o(i.W25QXX_WAKEUP) refers to spi.o(i.SPI5_ReadWriteByte) for SPI5_ReadWriteByte
    w25qxx.o(i.W25QXX_WAKEUP) refers to delay.o(i.delay_us) for delay_us
    w25qxx.o(i.W25QXX_Wait_Busy) refers to w25qxx.o(i.W25QXX_ReadSR) for W25QXX_ReadSR
    w25qxx.o(i.W25QXX_Write) refers to malloc.o(i.mymalloc) for mymalloc
    w25qxx.o(i.W25QXX_Write) refers to w25qxx.o(i.W25QXX_Read) for W25QXX_Read
    w25qxx.o(i.W25QXX_Write) refers to w25qxx.o(i.W25QXX_Erase_Sector) for W25QXX_Erase_Sector
    w25qxx.o(i.W25QXX_Write) refers to w25qxx.o(i.W25QXX_Write_NoCheck) for W25QXX_Write_NoCheck
    w25qxx.o(i.W25QXX_Write) refers to malloc.o(i.myfree) for myfree
    w25qxx.o(i.W25QXX_Write_Disable) refers to spi.o(i.SPI5_ReadWriteByte) for SPI5_ReadWriteByte
    w25qxx.o(i.W25QXX_Write_Enable) refers to spi.o(i.SPI5_ReadWriteByte) for SPI5_ReadWriteByte
    w25qxx.o(i.W25QXX_Write_NoCheck) refers to w25qxx.o(i.W25QXX_Write_Page) for W25QXX_Write_Page
    w25qxx.o(i.W25QXX_Write_Page) refers to w25qxx.o(i.W25QXX_Write_Enable) for W25QXX_Write_Enable
    w25qxx.o(i.W25QXX_Write_Page) refers to spi.o(i.SPI5_ReadWriteByte) for SPI5_ReadWriteByte
    w25qxx.o(i.W25QXX_Write_Page) refers to w25qxx.o(i.W25QXX_Wait_Busy) for W25QXX_Wait_Busy
    w25qxx.o(i.W25QXX_Write_Page) refers to w25qxx.o(.data) for .data
    w25qxx.o(i.W25QXX_Write_SR) refers to spi.o(i.SPI5_ReadWriteByte) for SPI5_ReadWriteByte
    ftl.o(i.FTL_BadBlockMark) refers to nand.o(i.NAND_WriteSpare) for NAND_WriteSpare
    ftl.o(i.FTL_BadBlockMark) refers to nand.o(.bss) for nand_dev
    ftl.o(i.FTL_BlockCompare) refers to _printf_percent.o(.ARM.Collect$$_printf_percent$$00000000) for _printf_percent
    ftl.o(i.FTL_BlockCompare) refers to _printf_d.o(.ARM.Collect$$_printf_percent$$00000009) for _printf_d
    ftl.o(i.FTL_BlockCompare) refers to _printf_dec.o(.text) for _printf_int_dec
    ftl.o(i.FTL_BlockCompare) refers to nand.o(i.NAND_ReadPageComp) for NAND_ReadPageComp
    ftl.o(i.FTL_BlockCompare) refers to nand.o(i.NAND_EraseBlock) for NAND_EraseBlock
    ftl.o(i.FTL_BlockCompare) refers to __2printf.o(.text) for __2printf
    ftl.o(i.FTL_BlockCompare) refers to nand.o(i.NAND_WritePageConst) for NAND_WritePageConst
    ftl.o(i.FTL_BlockCompare) refers to nand.o(.bss) for nand_dev
    ftl.o(i.FTL_CheckBadBlock) refers to nand.o(i.NAND_ReadSpare) for NAND_ReadSpare
    ftl.o(i.FTL_CheckBadBlock) refers to nand.o(.bss) for nand_dev
    ftl.o(i.FTL_CopyAndWriteToBlock) refers to ftl.o(i.FTL_FindSamePlaneUnusedBlock) for FTL_FindSamePlaneUnusedBlock
    ftl.o(i.FTL_CopyAndWriteToBlock) refers to nand.o(i.NAND_CopyPageWithWrite) for NAND_CopyPageWithWrite
    ftl.o(i.FTL_CopyAndWriteToBlock) refers to nand.o(i.NAND_CopyPageWithoutWrite) for NAND_CopyPageWithoutWrite
    ftl.o(i.FTL_CopyAndWriteToBlock) refers to ftl.o(i.FTL_BadBlockMark) for FTL_BadBlockMark
    ftl.o(i.FTL_CopyAndWriteToBlock) refers to ftl.o(i.FTL_CreateLUT) for FTL_CreateLUT
    ftl.o(i.FTL_CopyAndWriteToBlock) refers to ftl.o(i.FTL_UsedBlockMark) for FTL_UsedBlockMark
    ftl.o(i.FTL_CopyAndWriteToBlock) refers to nand.o(i.NAND_EraseBlock) for NAND_EraseBlock
    ftl.o(i.FTL_CopyAndWriteToBlock) refers to nand.o(.bss) for nand_dev
    ftl.o(i.FTL_CreateLUT) refers to _printf_percent.o(.ARM.Collect$$_printf_percent$$00000000) for _printf_percent
    ftl.o(i.FTL_CreateLUT) refers to _printf_d.o(.ARM.Collect$$_printf_percent$$00000009) for _printf_d
    ftl.o(i.FTL_CreateLUT) refers to _printf_dec.o(.text) for _printf_int_dec
    ftl.o(i.FTL_CreateLUT) refers to nand.o(i.NAND_ReadSpare) for NAND_ReadSpare
    ftl.o(i.FTL_CreateLUT) refers to __2printf.o(.text) for __2printf
    ftl.o(i.FTL_CreateLUT) refers to nand.o(.bss) for nand_dev
    ftl.o(i.FTL_FindSamePlaneUnusedBlock) refers to ftl.o(i.FTL_FindUnusedBlock) for FTL_FindUnusedBlock
    ftl.o(i.FTL_FindSamePlaneUnusedBlock) refers to nand.o(.bss) for nand_dev
    ftl.o(i.FTL_FindSamePlaneUnusedBlock) refers to ftl.o(.data) for .data
    ftl.o(i.FTL_FindUnusedBlock) refers to nand.o(i.NAND_ReadSpare) for NAND_ReadSpare
    ftl.o(i.FTL_FindUnusedBlock) refers to nand.o(.bss) for nand_dev
    ftl.o(i.FTL_Format) refers to _printf_percent.o(.ARM.Collect$$_printf_percent$$00000000) for _printf_percent
    ftl.o(i.FTL_Format) refers to _printf_d.o(.ARM.Collect$$_printf_percent$$00000009) for _printf_d
    ftl.o(i.FTL_Format) refers to _printf_dec.o(.text) for _printf_int_dec
    ftl.o(i.FTL_Format) refers to ftl.o(i.FTL_CheckBadBlock) for FTL_CheckBadBlock
    ftl.o(i.FTL_Format) refers to nand.o(i.NAND_EraseBlock) for NAND_EraseBlock
    ftl.o(i.FTL_Format) refers to __2printf.o(.text) for __2printf
    ftl.o(i.FTL_Format) refers to ftl.o(i.FTL_BadBlockMark) for FTL_BadBlockMark
    ftl.o(i.FTL_Format) refers to nand.o(i.NAND_WriteSpare) for NAND_WriteSpare
    ftl.o(i.FTL_Format) refers to ftl.o(i.FTL_CreateLUT) for FTL_CreateLUT
    ftl.o(i.FTL_Format) refers to nand.o(.bss) for nand_dev
    ftl.o(i.FTL_Init) refers to _printf_percent.o(.ARM.Collect$$_printf_percent$$00000000) for _printf_percent
    ftl.o(i.FTL_Init) refers to _printf_d.o(.ARM.Collect$$_printf_percent$$00000009) for _printf_d
    ftl.o(i.FTL_Init) refers to _printf_dec.o(.text) for _printf_int_dec
    ftl.o(i.FTL_Init) refers to nand.o(i.NAND_Init) for NAND_Init
    ftl.o(i.FTL_Init) refers to malloc.o(i.myfree) for myfree
    ftl.o(i.FTL_Init) refers to malloc.o(i.mymalloc) for mymalloc
    ftl.o(i.FTL_Init) refers to rt_memclr.o(.text) for __aeabi_memclr
    ftl.o(i.FTL_Init) refers to ftl.o(i.FTL_CreateLUT) for FTL_CreateLUT
    ftl.o(i.FTL_Init) refers to __2printf.o(.text) for __2printf
    ftl.o(i.FTL_Init) refers to ftl.o(i.FTL_Format) for FTL_Format
    ftl.o(i.FTL_Init) refers to nand.o(.bss) for nand_dev
    ftl.o(i.FTL_LBNToPBN) refers to nand.o(.bss) for nand_dev
    ftl.o(i.FTL_ReadSectors) refers to ftl.o(i.FTL_LBNToPBN) for FTL_LBNToPBN
    ftl.o(i.FTL_ReadSectors) refers to nand.o(i.NAND_ReadPage) for NAND_ReadPage
    ftl.o(i.FTL_ReadSectors) refers to ftl.o(i.FTL_CopyAndWriteToBlock) for FTL_CopyAndWriteToBlock
    ftl.o(i.FTL_ReadSectors) refers to ftl.o(i.FTL_BlockCompare) for FTL_BlockCompare
    ftl.o(i.FTL_ReadSectors) refers to nand.o(i.NAND_EraseBlock) for NAND_EraseBlock
    ftl.o(i.FTL_ReadSectors) refers to ftl.o(i.FTL_BadBlockMark) for FTL_BadBlockMark
    ftl.o(i.FTL_ReadSectors) refers to ftl.o(i.FTL_CreateLUT) for FTL_CreateLUT
    ftl.o(i.FTL_ReadSectors) refers to nand.o(.bss) for nand_dev
    ftl.o(i.FTL_SearchBadBlock) refers to malloc.o(i.mymalloc) for mymalloc
    ftl.o(i.FTL_SearchBadBlock) refers to nand.o(i.NAND_EraseChip) for NAND_EraseChip
    ftl.o(i.FTL_SearchBadBlock) refers to ftl.o(i.FTL_BlockCompare) for FTL_BlockCompare
    ftl.o(i.FTL_SearchBadBlock) refers to nand.o(i.NAND_WritePageConst) for NAND_WritePageConst
    ftl.o(i.FTL_SearchBadBlock) refers to ftl.o(i.FTL_BadBlockMark) for FTL_BadBlockMark
    ftl.o(i.FTL_SearchBadBlock) refers to nand.o(.bss) for nand_dev
    ftl.o(i.FTL_UsedBlockMark) refers to nand.o(i.NAND_WriteSpare) for NAND_WriteSpare
    ftl.o(i.FTL_UsedBlockMark) refers to nand.o(.bss) for nand_dev
    ftl.o(i.FTL_WriteSectors) refers to ftl.o(i.FTL_LBNToPBN) for FTL_LBNToPBN
    ftl.o(i.FTL_WriteSectors) refers to nand.o(i.NAND_ReadPageComp) for NAND_ReadPageComp
    ftl.o(i.FTL_WriteSectors) refers to nand.o(i.NAND_WritePage) for NAND_WritePage
    ftl.o(i.FTL_WriteSectors) refers to ftl.o(i.FTL_UsedBlockMark) for FTL_UsedBlockMark
    ftl.o(i.FTL_WriteSectors) refers to ftl.o(i.FTL_CopyAndWriteToBlock) for FTL_CopyAndWriteToBlock
    ftl.o(i.FTL_WriteSectors) refers to nand.o(.bss) for nand_dev
    nand.o(i.NAND_CopyPageWithWrite) refers to nand.o(i.NAND_WaitRB) for NAND_WaitRB
    nand.o(i.NAND_CopyPageWithWrite) refers to nand.o(i.NAND_Delay) for NAND_Delay
    nand.o(i.NAND_CopyPageWithWrite) refers to nand.o(i.NAND_WaitForReady) for NAND_WaitForReady
    nand.o(i.NAND_CopyPageWithWrite) refers to nand.o(.bss) for .bss
    nand.o(i.NAND_CopyPageWithoutWrite) refers to nand.o(i.NAND_WaitRB) for NAND_WaitRB
    nand.o(i.NAND_CopyPageWithoutWrite) refers to nand.o(i.NAND_WaitForReady) for NAND_WaitForReady
    nand.o(i.NAND_CopyPageWithoutWrite) refers to nand.o(.bss) for .bss
    nand.o(i.NAND_ECC_Correction) refers to _printf_percent.o(.ARM.Collect$$_printf_percent$$00000000) for _printf_percent
    nand.o(i.NAND_ECC_Correction) refers to _printf_d.o(.ARM.Collect$$_printf_percent$$00000009) for _printf_d
    nand.o(i.NAND_ECC_Correction) refers to _printf_dec.o(.text) for _printf_int_dec
    nand.o(i.NAND_ECC_Correction) refers to nand.o(i.NAND_ECC_Get_OE) for NAND_ECC_Get_OE
    nand.o(i.NAND_ECC_Correction) refers to __2printf.o(.text) for __2printf
    nand.o(i.NAND_EraseBlock) refers to nand.o(i.NAND_WaitForReady) for NAND_WaitForReady
    nand.o(i.NAND_EraseBlock) refers to nand.o(.bss) for .bss
    nand.o(i.NAND_EraseChip) refers to _printf_percent.o(.ARM.Collect$$_printf_percent$$00000000) for _printf_percent
    nand.o(i.NAND_EraseChip) refers to _printf_d.o(.ARM.Collect$$_printf_percent$$00000009) for _printf_d
    nand.o(i.NAND_EraseChip) refers to _printf_dec.o(.text) for _printf_int_dec
    nand.o(i.NAND_EraseChip) refers to nand.o(i.NAND_EraseBlock) for NAND_EraseBlock
    nand.o(i.NAND_EraseChip) refers to __2printf.o(.text) for __2printf
    nand.o(i.NAND_EraseChip) refers to nand.o(.bss) for .bss
    nand.o(i.NAND_Init) refers to sys.o(i.GPIO_Set) for GPIO_Set
    nand.o(i.NAND_Init) refers to sys.o(i.GPIO_AF_Set) for GPIO_AF_Set
    nand.o(i.NAND_Init) refers to nand.o(i.NAND_Reset) for NAND_Reset
    nand.o(i.NAND_Init) refers to delay.o(i.delay_ms) for delay_ms
    nand.o(i.NAND_Init) refers to nand.o(i.NAND_ReadID) for NAND_ReadID
    nand.o(i.NAND_Init) refers to nand.o(i.NAND_ModeSet) for NAND_ModeSet
    nand.o(i.NAND_Init) refers to nand.o(.bss) for .bss
    nand.o(i.NAND_ModeSet) refers to nand.o(i.NAND_WaitForReady) for NAND_WaitForReady
    nand.o(i.NAND_ReadPage) refers to _printf_percent.o(.ARM.Collect$$_printf_percent$$00000000) for _printf_percent
    nand.o(i.NAND_ReadPage) refers to _printf_x.o(.ARM.Collect$$_printf_percent$$0000000C) for _printf_x
    nand.o(i.NAND_ReadPage) refers to _printf_hex_int_ll_ptr.o(.text) for _printf_longlong_hex
    nand.o(i.NAND_ReadPage) refers to _printf_d.o(.ARM.Collect$$_printf_percent$$00000009) for _printf_d
    nand.o(i.NAND_ReadPage) refers to _printf_dec.o(.text) for _printf_int_dec
    nand.o(i.NAND_ReadPage) refers to nand.o(i.NAND_WaitRB) for NAND_WaitRB
    nand.o(i.NAND_ReadPage) refers to nand.o(i.NAND_Delay) for NAND_Delay
    nand.o(i.NAND_ReadPage) refers to __2printf.o(.text) for __2printf
    nand.o(i.NAND_ReadPage) refers to nand.o(i.NAND_ECC_Correction) for NAND_ECC_Correction
    nand.o(i.NAND_ReadPage) refers to nand.o(i.NAND_WaitForReady) for NAND_WaitForReady
    nand.o(i.NAND_ReadPage) refers to nand.o(.bss) for .bss
    nand.o(i.NAND_ReadPageComp) refers to nand.o(i.NAND_WaitRB) for NAND_WaitRB
    nand.o(i.NAND_ReadPageComp) refers to nand.o(i.NAND_WaitForReady) for NAND_WaitForReady
    nand.o(i.NAND_ReadSpare) refers to nand.o(i.NAND_ReadPage) for NAND_ReadPage
    nand.o(i.NAND_ReadSpare) refers to nand.o(.bss) for .bss
    nand.o(i.NAND_Reset) refers to nand.o(i.NAND_WaitForReady) for NAND_WaitForReady
    nand.o(i.NAND_WaitForReady) refers to nand.o(i.NAND_ReadStatus) for NAND_ReadStatus
    nand.o(i.NAND_WritePage) refers to nand.o(i.NAND_Delay) for NAND_Delay
    nand.o(i.NAND_WritePage) refers to nand.o(i.NAND_WaitForReady) for NAND_WaitForReady
    nand.o(i.NAND_WritePage) refers to nand.o(.bss) for .bss
    nand.o(i.NAND_WritePageConst) refers to nand.o(i.NAND_Delay) for NAND_Delay
    nand.o(i.NAND_WritePageConst) refers to nand.o(i.NAND_WaitForReady) for NAND_WaitForReady
    nand.o(i.NAND_WriteSpare) refers to nand.o(i.NAND_WritePage) for NAND_WritePage
    nand.o(i.NAND_WriteSpare) refers to nand.o(.bss) for .bss
    nandtester.o(i.test_copypageandwrite) refers to malloc.o(i.mymalloc) for mymalloc
    nandtester.o(i.test_copypageandwrite) refers to nand.o(i.NAND_CopyPageWithWrite) for NAND_CopyPageWithWrite
    nandtester.o(i.test_copypageandwrite) refers to malloc.o(i.myfree) for myfree
    nandtester.o(i.test_ftlreadsectors) refers to _printf_percent.o(.ARM.Collect$$_printf_percent$$00000000) for _printf_percent
    nandtester.o(i.test_ftlreadsectors) refers to _printf_d.o(.ARM.Collect$$_printf_percent$$00000009) for _printf_d
    nandtester.o(i.test_ftlreadsectors) refers to _printf_dec.o(.text) for _printf_int_dec
    nandtester.o(i.test_ftlreadsectors) refers to _printf_x.o(.ARM.Collect$$_printf_percent$$0000000C) for _printf_x
    nandtester.o(i.test_ftlreadsectors) refers to _printf_hex_int_ll_ptr.o(.text) for _printf_longlong_hex
    nandtester.o(i.test_ftlreadsectors) refers to malloc.o(i.mymalloc) for mymalloc
    nandtester.o(i.test_ftlreadsectors) refers to ftl.o(i.FTL_ReadSectors) for FTL_ReadSectors
    nandtester.o(i.test_ftlreadsectors) refers to __2printf.o(.text) for __2printf
    nandtester.o(i.test_ftlreadsectors) refers to malloc.o(i.myfree) for myfree
    nandtester.o(i.test_ftlwritesectors) refers to malloc.o(i.mymalloc) for mymalloc
    nandtester.o(i.test_ftlwritesectors) refers to ftl.o(i.FTL_WriteSectors) for FTL_WriteSectors
    nandtester.o(i.test_ftlwritesectors) refers to malloc.o(i.myfree) for myfree
    nandtester.o(i.test_readallblockinfo) refers to _printf_percent.o(.ARM.Collect$$_printf_percent$$00000000) for _printf_percent
    nandtester.o(i.test_readallblockinfo) refers to _printf_d.o(.ARM.Collect$$_printf_percent$$00000009) for _printf_d
    nandtester.o(i.test_readallblockinfo) refers to _printf_dec.o(.text) for _printf_int_dec
    nandtester.o(i.test_readallblockinfo) refers to _printf_x.o(.ARM.Collect$$_printf_percent$$0000000C) for _printf_x
    nandtester.o(i.test_readallblockinfo) refers to _printf_hex_int_ll_ptr.o(.text) for _printf_longlong_hex
    nandtester.o(i.test_readallblockinfo) refers to __2printf.o(.text) for __2printf
    nandtester.o(i.test_readallblockinfo) refers to nand.o(i.NAND_ReadSpare) for NAND_ReadSpare
    nandtester.o(i.test_readallblockinfo) refers to nand.o(.bss) for nand_dev
    nandtester.o(i.test_readpage) refers to _printf_percent.o(.ARM.Collect$$_printf_percent$$00000000) for _printf_percent
    nandtester.o(i.test_readpage) refers to _printf_x.o(.ARM.Collect$$_printf_percent$$0000000C) for _printf_x
    nandtester.o(i.test_readpage) refers to _printf_hex_int_ll_ptr.o(.text) for _printf_longlong_hex
    nandtester.o(i.test_readpage) refers to malloc.o(i.mymalloc) for mymalloc
    nandtester.o(i.test_readpage) refers to nand.o(i.NAND_ReadPage) for NAND_ReadPage
    nandtester.o(i.test_readpage) refers to __2printf.o(.text) for __2printf
    nandtester.o(i.test_readpage) refers to malloc.o(i.myfree) for myfree
    nandtester.o(i.test_readspare) refers to _printf_percent.o(.ARM.Collect$$_printf_percent$$00000000) for _printf_percent
    nandtester.o(i.test_readspare) refers to _printf_x.o(.ARM.Collect$$_printf_percent$$0000000C) for _printf_x
    nandtester.o(i.test_readspare) refers to _printf_hex_int_ll_ptr.o(.text) for _printf_longlong_hex
    nandtester.o(i.test_readspare) refers to malloc.o(i.mymalloc) for mymalloc
    nandtester.o(i.test_readspare) refers to nand.o(i.NAND_ReadSpare) for NAND_ReadSpare
    nandtester.o(i.test_readspare) refers to __2printf.o(.text) for __2printf
    nandtester.o(i.test_readspare) refers to malloc.o(i.myfree) for myfree
    nandtester.o(i.test_writepage) refers to malloc.o(i.mymalloc) for mymalloc
    nandtester.o(i.test_writepage) refers to nand.o(i.NAND_WritePage) for NAND_WritePage
    nandtester.o(i.test_writepage) refers to malloc.o(i.myfree) for myfree
    usart3.o(i.USART3_IRQHandler) refers to usart3.o(.data) for .data
    usart3.o(i.USART3_IRQHandler) refers to usart3.o(.bss) for .bss
    usart3.o(i.u3_printf) refers to vsprintf.o(.text) for vsprintf
    usart3.o(i.u3_printf) refers to strlen.o(.text) for strlen
    usart3.o(i.u3_printf) refers to usart3.o(.bss) for .bss
    usart3.o(i.usart3_init) refers to sys.o(i.GPIO_Set) for GPIO_Set
    usart3.o(i.usart3_init) refers to sys.o(i.GPIO_AF_Set) for GPIO_AF_Set
    usart3.o(i.usart3_init) refers to sys.o(i.MY_NVIC_Init) for MY_NVIC_Init
    usart3.o(i.usart3_init) refers to timer.o(i.TIM7_Int_Init) for TIM7_Int_Init
    usart3.o(i.usart3_init) refers to usart3.o(.data) for .data
    malloc.o(i.my_mem_free) refers to malloc.o(.data) for .data
    malloc.o(i.my_mem_free) refers to malloc.o(.constdata) for .constdata
    malloc.o(i.my_mem_init) refers to malloc.o(i.mymemset) for mymemset
    malloc.o(i.my_mem_init) refers to malloc.o(.constdata) for .constdata
    malloc.o(i.my_mem_init) refers to malloc.o(.data) for .data
    malloc.o(i.my_mem_malloc) refers to malloc.o(.data) for .data
    malloc.o(i.my_mem_malloc) refers to malloc.o(.constdata) for .constdata
    malloc.o(i.my_mem_perused) refers to malloc.o(.constdata) for .constdata
    malloc.o(i.my_mem_perused) refers to malloc.o(.data) for .data
    malloc.o(i.myfree) refers to malloc.o(i.my_mem_free) for my_mem_free
    malloc.o(i.myfree) refers to malloc.o(.data) for .data
    malloc.o(i.mymalloc) refers to malloc.o(i.my_mem_malloc) for my_mem_malloc
    malloc.o(i.mymalloc) refers to malloc.o(.data) for .data
    malloc.o(i.myrealloc) refers to malloc.o(i.my_mem_malloc) for my_mem_malloc
    malloc.o(i.myrealloc) refers to malloc.o(i.mymemcpy) for mymemcpy
    malloc.o(i.myrealloc) refers to malloc.o(i.myfree) for myfree
    malloc.o(i.myrealloc) refers to malloc.o(.data) for .data
    malloc.o(.data) refers to malloc.o(i.my_mem_init) for my_mem_init
    malloc.o(.data) refers to malloc.o(i.my_mem_perused) for my_mem_perused
    malloc.o(.data) refers to malloc.o(.bss) for mem1base
    malloc.o(.data) refers to malloc.o(.ARM.__AT_0xC01F4000) for mem2base
    malloc.o(.data) refers to malloc.o(.ARM.__AT_0x10000000) for mem3base
    malloc.o(.data) refers to malloc.o(.bss) for mem1mapbase
    malloc.o(.data) refers to malloc.o(.ARM.__AT_0xC1E30000) for mem2mapbase
    malloc.o(.data) refers to malloc.o(.ARM.__AT_0x1000F000) for mem3mapbase
    exfuns.o(i.exf_copy) refers to malloc.o(i.mymalloc) for mymalloc
    exfuns.o(i.exf_copy) refers to ff.o(i.f_open) for f_open
    exfuns.o(i.exf_copy) refers to lludivv7m.o(.text) for __aeabi_uldivmod
    exfuns.o(i.exf_copy) refers to ff.o(i.f_write) for f_write
    exfuns.o(i.exf_copy) refers to ff.o(i.f_read) for f_read
    exfuns.o(i.exf_copy) refers to ff.o(i.f_close) for f_close
    exfuns.o(i.exf_copy) refers to malloc.o(i.myfree) for myfree
    exfuns.o(i.exf_fdcopy) refers to malloc.o(i.mymalloc) for mymalloc
    exfuns.o(i.exf_fdcopy) refers to strcat.o(.text) for strcat
    exfuns.o(i.exf_fdcopy) refers to ff.o(i.f_opendir) for f_opendir
    exfuns.o(i.exf_fdcopy) refers to exfuns.o(i.exf_get_src_dname) for exf_get_src_dname
    exfuns.o(i.exf_fdcopy) refers to ff.o(i.f_mkdir) for f_mkdir
    exfuns.o(i.exf_fdcopy) refers to strlen.o(.text) for strlen
    exfuns.o(i.exf_fdcopy) refers to ff.o(i.f_readdir) for f_readdir
    exfuns.o(i.exf_fdcopy) refers to exfuns.o(i.exf_copy) for exf_copy
    exfuns.o(i.exf_fdcopy) refers to malloc.o(i.myfree) for myfree
    exfuns.o(i.exf_fdsize) refers to malloc.o(i.mymalloc) for mymalloc
    exfuns.o(i.exf_fdsize) refers to strcat.o(.text) for strcat
    exfuns.o(i.exf_fdsize) refers to ff.o(i.f_opendir) for f_opendir
    exfuns.o(i.exf_fdsize) refers to strlen.o(.text) for strlen
    exfuns.o(i.exf_fdsize) refers to ff.o(i.f_readdir) for f_readdir
    exfuns.o(i.exf_fdsize) refers to malloc.o(i.myfree) for myfree
    exfuns.o(i.exf_getfree) refers to ff.o(i.f_getfree) for f_getfree
    exfuns.o(i.exfuns_init) refers to malloc.o(i.mymalloc) for mymalloc
    exfuns.o(i.exfuns_init) refers to exfuns.o(.bss) for .bss
    exfuns.o(i.exfuns_init) refers to exfuns.o(.data) for .data
    exfuns.o(i.f_typetell) refers to strcpy.o(.text) for strcpy
    exfuns.o(i.f_typetell) refers to exfuns.o(i.char_upper) for char_upper
    exfuns.o(i.f_typetell) refers to strcmpv7m.o(.text) for strcmp
    exfuns.o(i.f_typetell) refers to exfuns.o(.constdata) for .constdata
    exfuns.o(.constdata) refers to exfuns.o(.conststring) for .conststring
    fattester.o(i.mf_close) refers to ff.o(i.f_close) for f_close
    fattester.o(i.mf_close) refers to exfuns.o(.data) for file
    fattester.o(i.mf_closedir) refers to ff.o(i.f_closedir) for f_closedir
    fattester.o(i.mf_closedir) refers to exfuns.o(.bss) for dir
    fattester.o(i.mf_fmkfs) refers to ff.o(i.f_mkfs) for f_mkfs
    fattester.o(i.mf_getlabel) refers to _printf_percent.o(.ARM.Collect$$_printf_percent$$00000000) for _printf_percent
    fattester.o(i.mf_getlabel) refers to _printf_s.o(.ARM.Collect$$_printf_percent$$00000014) for _printf_s
    fattester.o(i.mf_getlabel) refers to _printf_str.o(.text) for _printf_str
    fattester.o(i.mf_getlabel) refers to _printf_x.o(.ARM.Collect$$_printf_percent$$0000000C) for _printf_x
    fattester.o(i.mf_getlabel) refers to _printf_hex_int_ll_ptr.o(.text) for _printf_longlong_hex
    fattester.o(i.mf_getlabel) refers to ff.o(i.f_getlabel) for f_getlabel
    fattester.o(i.mf_getlabel) refers to __2printf.o(.text) for __2printf
    fattester.o(i.mf_gets) refers to _printf_percent.o(.ARM.Collect$$_printf_percent$$00000000) for _printf_percent
    fattester.o(i.mf_gets) refers to _printf_s.o(.ARM.Collect$$_printf_percent$$00000014) for _printf_s
    fattester.o(i.mf_gets) refers to _printf_str.o(.text) for _printf_str
    fattester.o(i.mf_gets) refers to ff.o(i.f_gets) for f_gets
    fattester.o(i.mf_gets) refers to __2printf.o(.text) for __2printf
    fattester.o(i.mf_gets) refers to exfuns.o(.data) for file
    fattester.o(i.mf_lseek) refers to ff.o(i.f_lseek) for f_lseek
    fattester.o(i.mf_lseek) refers to exfuns.o(.data) for file
    fattester.o(i.mf_mkdir) refers to ff.o(i.f_mkdir) for f_mkdir
    fattester.o(i.mf_mount) refers to ff.o(i.f_mount) for f_mount
    fattester.o(i.mf_mount) refers to exfuns.o(.bss) for fs
    fattester.o(i.mf_open) refers to ff.o(i.f_open) for f_open
    fattester.o(i.mf_open) refers to exfuns.o(.data) for file
    fattester.o(i.mf_opendir) refers to ff.o(i.f_opendir) for f_opendir
    fattester.o(i.mf_opendir) refers to exfuns.o(.bss) for dir
    fattester.o(i.mf_putc) refers to ff.o(i.f_putc) for f_putc
    fattester.o(i.mf_putc) refers to exfuns.o(.data) for file
    fattester.o(i.mf_puts) refers to ff.o(i.f_puts) for f_puts
    fattester.o(i.mf_puts) refers to exfuns.o(.data) for file
    fattester.o(i.mf_read) refers to _printf_percent.o(.ARM.Collect$$_printf_percent$$00000000) for _printf_percent
    fattester.o(i.mf_read) refers to _printf_d.o(.ARM.Collect$$_printf_percent$$00000009) for _printf_d
    fattester.o(i.mf_read) refers to _printf_dec.o(.text) for _printf_int_dec
    fattester.o(i.mf_read) refers to _printf_c.o(.ARM.Collect$$_printf_percent$$00000013) for _printf_c
    fattester.o(i.mf_read) refers to _printf_str.o(.text) for _printf_str
    fattester.o(i.mf_read) refers to __2printf.o(.text) for __2printf
    fattester.o(i.mf_read) refers to ff.o(i.f_read) for f_read
    fattester.o(i.mf_read) refers to exfuns.o(.data) for fatbuf
    fattester.o(i.mf_read) refers to exfuns.o(.data) for br
    fattester.o(i.mf_readdir) refers to _printf_percent.o(.ARM.Collect$$_printf_percent$$00000000) for _printf_percent
    fattester.o(i.mf_readdir) refers to _printf_d.o(.ARM.Collect$$_printf_percent$$00000009) for _printf_d
    fattester.o(i.mf_readdir) refers to _printf_dec.o(.text) for _printf_int_dec
    fattester.o(i.mf_readdir) refers to _printf_lld.o(.ARM.Collect$$_printf_percent$$0000000E) for _printf_lld
    fattester.o(i.mf_readdir) refers to _printf_longlong_dec.o(.text) for _printf_longlong_dec
    fattester.o(i.mf_readdir) refers to _printf_s.o(.ARM.Collect$$_printf_percent$$00000014) for _printf_s
    fattester.o(i.mf_readdir) refers to _printf_str.o(.text) for _printf_str
    fattester.o(i.mf_readdir) refers to ff.o(i.f_readdir) for f_readdir
    fattester.o(i.mf_readdir) refers to __2printf.o(.text) for __2printf
    fattester.o(i.mf_readdir) refers to exfuns.o(.bss) for fileinfo
    fattester.o(i.mf_readdir) refers to exfuns.o(.bss) for dir
    fattester.o(i.mf_rename) refers to ff.o(i.f_rename) for f_rename
    fattester.o(i.mf_scan_files) refers to _printf_percent.o(.ARM.Collect$$_printf_percent$$00000000) for _printf_percent
    fattester.o(i.mf_scan_files) refers to _printf_s.o(.ARM.Collect$$_printf_percent$$00000014) for _printf_s
    fattester.o(i.mf_scan_files) refers to _printf_str.o(.text) for _printf_str
    fattester.o(i.mf_scan_files) refers to ff.o(i.f_opendir) for f_opendir
    fattester.o(i.mf_scan_files) refers to __2printf.o(.text) for __2printf
    fattester.o(i.mf_scan_files) refers to ff.o(i.f_readdir) for f_readdir
    fattester.o(i.mf_scan_files) refers to exfuns.o(.bss) for dir
    fattester.o(i.mf_scan_files) refers to exfuns.o(.bss) for fileinfo
    fattester.o(i.mf_setlabel) refers to _printf_percent.o(.ARM.Collect$$_printf_percent$$00000000) for _printf_percent
    fattester.o(i.mf_setlabel) refers to _printf_s.o(.ARM.Collect$$_printf_percent$$00000014) for _printf_s
    fattester.o(i.mf_setlabel) refers to _printf_str.o(.text) for _printf_str
    fattester.o(i.mf_setlabel) refers to _printf_x.o(.ARM.Collect$$_printf_percent$$0000000C) for _printf_x
    fattester.o(i.mf_setlabel) refers to _printf_hex_int_ll_ptr.o(.text) for _printf_longlong_hex
    fattester.o(i.mf_setlabel) refers to ff.o(i.f_setlabel) for f_setlabel
    fattester.o(i.mf_setlabel) refers to __2printf.o(.text) for __2printf
    fattester.o(i.mf_showfree) refers to _printf_percent.o(.ARM.Collect$$_printf_percent$$00000000) for _printf_percent
    fattester.o(i.mf_showfree) refers to _printf_d.o(.ARM.Collect$$_printf_percent$$00000009) for _printf_d
    fattester.o(i.mf_showfree) refers to _printf_dec.o(.text) for _printf_int_dec
    fattester.o(i.mf_showfree) refers to ff.o(i.f_getfree) for f_getfree
    fattester.o(i.mf_showfree) refers to __2printf.o(.text) for __2printf
    fattester.o(i.mf_size) refers to exfuns.o(.data) for file
    fattester.o(i.mf_tell) refers to exfuns.o(.data) for file
    fattester.o(i.mf_unlink) refers to ff.o(i.f_unlink) for f_unlink
    fattester.o(i.mf_write) refers to _printf_percent.o(.ARM.Collect$$_printf_percent$$00000000) for _printf_percent
    fattester.o(i.mf_write) refers to _printf_d.o(.ARM.Collect$$_printf_percent$$00000009) for _printf_d
    fattester.o(i.mf_write) refers to _printf_dec.o(.text) for _printf_int_dec
    fattester.o(i.mf_write) refers to __2printf.o(.text) for __2printf
    fattester.o(i.mf_write) refers to ff.o(i.f_write) for f_write
    fattester.o(i.mf_write) refers to exfuns.o(.data) for bw
    fattester.o(i.mf_write) refers to exfuns.o(.data) for file
    mycc936.o(i.ff_convert) refers to w25qxx.o(i.W25QXX_Read) for W25QXX_Read
    mycc936.o(i.ff_convert) refers to fontupd.o(.bss) for ftinfo
    mycc936.o(i.ff_wtoupper) refers to mycc936.o(.constdata) for .constdata
    diskio.o(i.disk_initialize) refers to sdio_sdcard.o(i.SD_Init) for SD_Init
    diskio.o(i.disk_initialize) refers to w25qxx.o(i.W25QXX_Init) for W25QXX_Init
    diskio.o(i.disk_initialize) refers to ftl.o(i.FTL_Init) for FTL_Init
    diskio.o(i.disk_ioctl) refers to llsdiv.o(.text) for __aeabi_ldivmod
    diskio.o(i.disk_ioctl) refers to sdio_sdcard.o(.bss) for SDCardInfo
    diskio.o(i.disk_ioctl) refers to nand.o(.bss) for nand_dev
    diskio.o(i.disk_read) refers to sdio_sdcard.o(i.SD_Init) for SD_Init
    diskio.o(i.disk_read) refers to sdio_sdcard.o(i.SD_ReadDisk) for SD_ReadDisk
    diskio.o(i.disk_read) refers to w25qxx.o(i.W25QXX_Read) for W25QXX_Read
    diskio.o(i.disk_read) refers to ftl.o(i.FTL_ReadSectors) for FTL_ReadSectors
    diskio.o(i.disk_write) refers to sdio_sdcard.o(i.SD_Init) for SD_Init
    diskio.o(i.disk_write) refers to sdio_sdcard.o(i.SD_WriteDisk) for SD_WriteDisk
    diskio.o(i.disk_write) refers to w25qxx.o(i.W25QXX_Write) for W25QXX_Write
    diskio.o(i.disk_write) refers to ftl.o(i.FTL_WriteSectors) for FTL_WriteSectors
    diskio.o(i.ff_memalloc) refers to malloc.o(i.mymalloc) for mymalloc
    diskio.o(i.ff_memfree) refers to malloc.o(i.myfree) for myfree
    ff.o(i.change_bitmap) refers to ff.o(i.move_window) for move_window
    ff.o(i.check_fs) refers to ff.o(i.move_window) for move_window
    ff.o(i.check_fs) refers to ff.o(i.ld_word) for ld_word
    ff.o(i.check_fs) refers to ff.o(i.ld_dword) for ld_dword
    ff.o(i.check_fs) refers to ff.o(i.mem_cmp) for mem_cmp
    ff.o(i.clmt_clust) refers to lludivv7m.o(.text) for __aeabi_uldivmod
    ff.o(i.cmp_lfn) refers to ff.o(i.ld_word) for ld_word
    ff.o(i.cmp_lfn) refers to mycc936.o(i.ff_wtoupper) for ff_wtoupper
    ff.o(i.cmp_lfn) refers to ff.o(.constdata) for .constdata
    ff.o(i.create_chain) refers to ff.o(i.get_fat) for get_fat
    ff.o(i.create_chain) refers to ff.o(i.find_bitmap) for find_bitmap
    ff.o(i.create_chain) refers to ff.o(i.change_bitmap) for change_bitmap
    ff.o(i.create_chain) refers to ff.o(i.put_fat) for put_fat
    ff.o(i.create_name) refers to mycc936.o(i.ff_convert) for ff_convert
    ff.o(i.create_name) refers to ff.o(i.chk_chr) for chk_chr
    ff.o(i.create_name) refers to ff.o(i.mem_set) for mem_set
    ff.o(i.create_name) refers to mycc936.o(i.ff_wtoupper) for ff_wtoupper
    ff.o(i.create_xdir) refers to ff.o(i.mem_set) for mem_set
    ff.o(i.create_xdir) refers to ff.o(i.xname_sum) for xname_sum
    ff.o(i.create_xdir) refers to ff.o(i.st_word) for st_word
    ff.o(i.dir_alloc) refers to ff.o(i.dir_sdi) for dir_sdi
    ff.o(i.dir_alloc) refers to ff.o(i.move_window) for move_window
    ff.o(i.dir_alloc) refers to ff.o(i.dir_next) for dir_next
    ff.o(i.dir_find) refers to ff.o(i.dir_sdi) for dir_sdi
    ff.o(i.dir_find) refers to ff.o(i.move_window) for move_window
    ff.o(i.dir_find) refers to ff.o(i.xname_sum) for xname_sum
    ff.o(i.dir_find) refers to ff.o(i.ld_word) for ld_word
    ff.o(i.dir_find) refers to mycc936.o(i.ff_wtoupper) for ff_wtoupper
    ff.o(i.dir_find) refers to ff.o(i.dir_read) for dir_read
    ff.o(i.dir_find) refers to ff.o(i.cmp_lfn) for cmp_lfn
    ff.o(i.dir_find) refers to ff.o(i.sum_sfn) for sum_sfn
    ff.o(i.dir_find) refers to ff.o(i.mem_cmp) for mem_cmp
    ff.o(i.dir_find) refers to ff.o(i.dir_next) for dir_next
    ff.o(i.dir_next) refers to ff.o(i.get_fat) for get_fat
    ff.o(i.dir_next) refers to ff.o(i.create_chain) for create_chain
    ff.o(i.dir_next) refers to ff.o(i.sync_window) for sync_window
    ff.o(i.dir_next) refers to ff.o(i.mem_set) for mem_set
    ff.o(i.dir_next) refers to ff.o(i.clust2sect) for clust2sect
    ff.o(i.dir_read) refers to ff.o(i.move_window) for move_window
    ff.o(i.dir_read) refers to ff.o(i.load_xdir) for load_xdir
    ff.o(i.dir_read) refers to ff.o(i.pick_lfn) for pick_lfn
    ff.o(i.dir_read) refers to ff.o(i.dir_next) for dir_next
    ff.o(i.dir_read) refers to ff.o(i.sum_sfn) for sum_sfn
    ff.o(i.dir_register) refers to ff.o(i.mem_cpy) for mem_cpy
    ff.o(i.dir_register) refers to ff.o(i.gen_numname) for gen_numname
    ff.o(i.dir_register) refers to ff.o(i.dir_find) for dir_find
    ff.o(i.dir_register) refers to ff.o(i.dir_alloc) for dir_alloc
    ff.o(i.dir_register) refers to ff.o(i.fill_fat_chain) for fill_fat_chain
    ff.o(i.dir_register) refers to ff.o(i.load_obj_dir) for load_obj_dir
    ff.o(i.dir_register) refers to ff.o(i.st_qword) for st_qword
    ff.o(i.dir_register) refers to ff.o(i.store_xdir) for store_xdir
    ff.o(i.dir_register) refers to ff.o(i.create_xdir) for create_xdir
    ff.o(i.dir_register) refers to ff.o(i.dir_sdi) for dir_sdi
    ff.o(i.dir_register) refers to ff.o(i.sum_sfn) for sum_sfn
    ff.o(i.dir_register) refers to ff.o(i.move_window) for move_window
    ff.o(i.dir_register) refers to ff.o(i.st_word) for st_word
    ff.o(i.dir_register) refers to ff.o(i.dir_next) for dir_next
    ff.o(i.dir_register) refers to ff.o(i.mem_set) for mem_set
    ff.o(i.dir_register) refers to ff.o(.constdata) for .constdata
    ff.o(i.dir_remove) refers to ff.o(i.dir_sdi) for dir_sdi
    ff.o(i.dir_remove) refers to ff.o(i.move_window) for move_window
    ff.o(i.dir_remove) refers to ff.o(i.dir_next) for dir_next
    ff.o(i.dir_sdi) refers to ff.o(i.get_fat) for get_fat
    ff.o(i.dir_sdi) refers to ff.o(i.clust2sect) for clust2sect
    ff.o(i.f_close) refers to ff.o(i.f_sync) for f_sync
    ff.o(i.f_close) refers to ff.o(i.validate) for validate
    ff.o(i.f_closedir) refers to ff.o(i.validate) for validate
    ff.o(i.f_getfree) refers to ff.o(i.find_volume) for find_volume
    ff.o(i.f_getfree) refers to ff.o(i.get_fat) for get_fat
    ff.o(i.f_getfree) refers to ff.o(i.move_window) for move_window
    ff.o(i.f_getfree) refers to ff.o(i.ld_dword) for ld_dword
    ff.o(i.f_getfree) refers to ff.o(i.ld_word) for ld_word
    ff.o(i.f_getlabel) refers to ff.o(i.find_volume) for find_volume
    ff.o(i.f_getlabel) refers to ff.o(i.dir_sdi) for dir_sdi
    ff.o(i.f_getlabel) refers to ff.o(i.dir_read) for dir_read
    ff.o(i.f_getlabel) refers to ff.o(i.ld_word) for ld_word
    ff.o(i.f_getlabel) refers to mycc936.o(i.ff_convert) for ff_convert
    ff.o(i.f_getlabel) refers to ff.o(i.move_window) for move_window
    ff.o(i.f_getlabel) refers to ff.o(i.ld_dword) for ld_dword
    ff.o(i.f_gets) refers to ff.o(i.f_read) for f_read
    ff.o(i.f_lseek) refers to ff.o(i.validate) for validate
    ff.o(i.f_lseek) refers to ff.o(i.clmt_clust) for clmt_clust
    ff.o(i.f_lseek) refers to ff.o(i.clust2sect) for clust2sect
    ff.o(i.f_lseek) refers to diskio.o(i.disk_write) for disk_write
    ff.o(i.f_lseek) refers to ff.o(i.get_fat) for get_fat
    ff.o(i.f_lseek) refers to diskio.o(i.disk_read) for disk_read
    ff.o(i.f_lseek) refers to lludivv7m.o(.text) for __aeabi_uldivmod
    ff.o(i.f_lseek) refers to ff.o(i.create_chain) for create_chain
    ff.o(i.f_mkdir) refers to ff.o(i.find_volume) for find_volume
    ff.o(i.f_mkdir) refers to diskio.o(i.ff_memalloc) for ff_memalloc
    ff.o(i.f_mkdir) refers to ff.o(i.follow_path) for follow_path
    ff.o(i.f_mkdir) refers to ff.o(i.create_chain) for create_chain
    ff.o(i.f_mkdir) refers to ff.o(i.sync_window) for sync_window
    ff.o(i.f_mkdir) refers to diskio.o(i.get_fattime) for get_fattime
    ff.o(i.f_mkdir) refers to ff.o(i.clust2sect) for clust2sect
    ff.o(i.f_mkdir) refers to ff.o(i.mem_set) for mem_set
    ff.o(i.f_mkdir) refers to ff.o(i.st_dword) for st_dword
    ff.o(i.f_mkdir) refers to ff.o(i.st_clust) for st_clust
    ff.o(i.f_mkdir) refers to ff.o(i.mem_cpy) for mem_cpy
    ff.o(i.f_mkdir) refers to ff.o(i.dir_register) for dir_register
    ff.o(i.f_mkdir) refers to ff.o(i.remove_chain) for remove_chain
    ff.o(i.f_mkdir) refers to diskio.o(i.ff_memfree) for ff_memfree
    ff.o(i.f_mkdir) refers to ff.o(i.sync_fs) for sync_fs
    ff.o(i.f_mkdir) refers to ff.o(i.store_xdir) for store_xdir
    ff.o(i.f_mkfs) refers to ff.o(i.get_ldnumber) for get_ldnumber
    ff.o(i.f_mkfs) refers to diskio.o(i.disk_initialize) for disk_initialize
    ff.o(i.f_mkfs) refers to diskio.o(i.disk_ioctl) for disk_ioctl
    ff.o(i.f_mkfs) refers to ff.o(i.mem_set) for mem_set
    ff.o(i.f_mkfs) refers to ff.o(i.st_dword) for st_dword
    ff.o(i.f_mkfs) refers to ff.o(i.st_word) for st_word
    ff.o(i.f_mkfs) refers to diskio.o(i.disk_write) for disk_write
    ff.o(i.f_mkfs) refers to ff.o(i.mem_cpy) for mem_cpy
    ff.o(i.f_mkfs) refers to diskio.o(i.get_fattime) for get_fattime
    ff.o(i.f_mkfs) refers to ff.o(.bss) for .bss
    ff.o(i.f_mkfs) refers to ff.o(.constdata) for .constdata
    ff.o(i.f_mount) refers to ff.o(i.get_ldnumber) for get_ldnumber
    ff.o(i.f_mount) refers to ff.o(i.find_volume) for find_volume
    ff.o(i.f_mount) refers to ff.o(.bss) for .bss
    ff.o(i.f_open) refers to ff.o(i.find_volume) for find_volume
    ff.o(i.f_open) refers to diskio.o(i.ff_memalloc) for ff_memalloc
    ff.o(i.f_open) refers to ff.o(i.follow_path) for follow_path
    ff.o(i.f_open) refers to ff.o(i.dir_register) for dir_register
    ff.o(i.f_open) refers to diskio.o(i.get_fattime) for get_fattime
    ff.o(i.f_open) refers to ff.o(i.st_dword) for st_dword
    ff.o(i.f_open) refers to ff.o(i.ld_clust) for ld_clust
    ff.o(i.f_open) refers to ff.o(i.st_clust) for st_clust
    ff.o(i.f_open) refers to ff.o(i.remove_chain) for remove_chain
    ff.o(i.f_open) refers to ff.o(i.ld_dword) for ld_dword
    ff.o(i.f_open) refers to ff.o(i.ld_qword) for ld_qword
    ff.o(i.f_open) refers to ff.o(i.st_qword) for st_qword
    ff.o(i.f_open) refers to ff.o(i.store_xdir) for store_xdir
    ff.o(i.f_open) refers to ff.o(i.move_window) for move_window
    ff.o(i.f_open) refers to diskio.o(i.ff_memfree) for ff_memfree
    ff.o(i.f_opendir) refers to ff.o(i.find_volume) for find_volume
    ff.o(i.f_opendir) refers to diskio.o(i.ff_memalloc) for ff_memalloc
    ff.o(i.f_opendir) refers to ff.o(i.follow_path) for follow_path
    ff.o(i.f_opendir) refers to ff.o(i.ld_clust) for ld_clust
    ff.o(i.f_opendir) refers to ff.o(i.ld_dword) for ld_dword
    ff.o(i.f_opendir) refers to ff.o(i.ld_qword) for ld_qword
    ff.o(i.f_opendir) refers to ff.o(i.dir_sdi) for dir_sdi
    ff.o(i.f_opendir) refers to diskio.o(i.ff_memfree) for ff_memfree
    ff.o(i.f_printf) refers to ff.o(i.putc_bfd) for putc_bfd
    ff.o(i.f_printf) refers to ff.o(i.f_write) for f_write
    ff.o(i.f_putc) refers to ff.o(i.putc_bfd) for putc_bfd
    ff.o(i.f_putc) refers to ff.o(i.f_write) for f_write
    ff.o(i.f_puts) refers to ff.o(i.putc_bfd) for putc_bfd
    ff.o(i.f_puts) refers to ff.o(i.f_write) for f_write
    ff.o(i.f_read) refers to ff.o(i.validate) for validate
    ff.o(i.f_read) refers to ff.o(i.clmt_clust) for clmt_clust
    ff.o(i.f_read) refers to ff.o(i.get_fat) for get_fat
    ff.o(i.f_read) refers to ff.o(i.clust2sect) for clust2sect
    ff.o(i.f_read) refers to diskio.o(i.disk_read) for disk_read
    ff.o(i.f_read) refers to ff.o(i.mem_cpy) for mem_cpy
    ff.o(i.f_read) refers to diskio.o(i.disk_write) for disk_write
    ff.o(i.f_readdir) refers to ff.o(i.validate) for validate
    ff.o(i.f_readdir) refers to diskio.o(i.ff_memalloc) for ff_memalloc
    ff.o(i.f_readdir) refers to ff.o(i.dir_read) for dir_read
    ff.o(i.f_readdir) refers to ff.o(i.dir_sdi) for dir_sdi
    ff.o(i.f_readdir) refers to ff.o(i.get_fileinfo) for get_fileinfo
    ff.o(i.f_readdir) refers to ff.o(i.dir_next) for dir_next
    ff.o(i.f_readdir) refers to diskio.o(i.ff_memfree) for ff_memfree
    ff.o(i.f_rename) refers to ff.o(i.get_ldnumber) for get_ldnumber
    ff.o(i.f_rename) refers to ff.o(i.find_volume) for find_volume
    ff.o(i.f_rename) refers to diskio.o(i.ff_memalloc) for ff_memalloc
    ff.o(i.f_rename) refers to ff.o(i.follow_path) for follow_path
    ff.o(i.f_rename) refers to ff.o(i.mem_cpy) for mem_cpy
    ff.o(i.f_rename) refers to ff.o(i.dir_register) for dir_register
    ff.o(i.f_rename) refers to ff.o(i.ld_word) for ld_word
    ff.o(i.f_rename) refers to ff.o(i.st_word) for st_word
    ff.o(i.f_rename) refers to ff.o(i.store_xdir) for store_xdir
    ff.o(i.f_rename) refers to ff.o(i.ld_clust) for ld_clust
    ff.o(i.f_rename) refers to ff.o(i.clust2sect) for clust2sect
    ff.o(i.f_rename) refers to ff.o(i.move_window) for move_window
    ff.o(i.f_rename) refers to ff.o(i.st_clust) for st_clust
    ff.o(i.f_rename) refers to ff.o(i.dir_remove) for dir_remove
    ff.o(i.f_rename) refers to ff.o(i.sync_fs) for sync_fs
    ff.o(i.f_rename) refers to diskio.o(i.ff_memfree) for ff_memfree
    ff.o(i.f_setlabel) refers to ff.o(i.find_volume) for find_volume
    ff.o(i.f_setlabel) refers to mycc936.o(i.ff_convert) for ff_convert
    ff.o(i.f_setlabel) refers to ff.o(i.chk_chr) for chk_chr
    ff.o(i.f_setlabel) refers to ff.o(i.st_word) for st_word
    ff.o(i.f_setlabel) refers to mycc936.o(i.ff_wtoupper) for ff_wtoupper
    ff.o(i.f_setlabel) refers to ff.o(i.dir_sdi) for dir_sdi
    ff.o(i.f_setlabel) refers to ff.o(i.dir_read) for dir_read
    ff.o(i.f_setlabel) refers to ff.o(i.dir_alloc) for dir_alloc
    ff.o(i.f_setlabel) refers to ff.o(i.mem_set) for mem_set
    ff.o(i.f_setlabel) refers to ff.o(i.mem_cpy) for mem_cpy
    ff.o(i.f_setlabel) refers to ff.o(i.sync_fs) for sync_fs
    ff.o(i.f_setlabel) refers to ff.o(.constdata) for .constdata
    ff.o(i.f_stat) refers to ff.o(i.find_volume) for find_volume
    ff.o(i.f_stat) refers to diskio.o(i.ff_memalloc) for ff_memalloc
    ff.o(i.f_stat) refers to ff.o(i.follow_path) for follow_path
    ff.o(i.f_stat) refers to ff.o(i.get_fileinfo) for get_fileinfo
    ff.o(i.f_stat) refers to diskio.o(i.ff_memfree) for ff_memfree
    ff.o(i.f_sync) refers to ff.o(i.validate) for validate
    ff.o(i.f_sync) refers to diskio.o(i.disk_write) for disk_write
    ff.o(i.f_sync) refers to diskio.o(i.get_fattime) for get_fattime
    ff.o(i.f_sync) refers to ff.o(i.move_window) for move_window
    ff.o(i.f_sync) refers to ff.o(i.fill_fat_chain) for fill_fat_chain
    ff.o(i.f_sync) refers to diskio.o(i.ff_memalloc) for ff_memalloc
    ff.o(i.f_sync) refers to ff.o(i.load_obj_dir) for load_obj_dir
    ff.o(i.f_sync) refers to ff.o(i.st_dword) for st_dword
    ff.o(i.f_sync) refers to ff.o(i.st_qword) for st_qword
    ff.o(i.f_sync) refers to ff.o(i.store_xdir) for store_xdir
    ff.o(i.f_sync) refers to ff.o(i.sync_fs) for sync_fs
    ff.o(i.f_sync) refers to diskio.o(i.ff_memfree) for ff_memfree
    ff.o(i.f_sync) refers to ff.o(i.st_clust) for st_clust
    ff.o(i.f_sync) refers to ff.o(i.st_word) for st_word
    ff.o(i.f_truncate) refers to ff.o(i.validate) for validate
    ff.o(i.f_truncate) refers to ff.o(i.get_fat) for get_fat
    ff.o(i.f_truncate) refers to ff.o(i.remove_chain) for remove_chain
    ff.o(i.f_truncate) refers to diskio.o(i.disk_write) for disk_write
    ff.o(i.f_unlink) refers to ff.o(i.find_volume) for find_volume
    ff.o(i.f_unlink) refers to diskio.o(i.ff_memalloc) for ff_memalloc
    ff.o(i.f_unlink) refers to ff.o(i.follow_path) for follow_path
    ff.o(i.f_unlink) refers to ff.o(i.ld_clust) for ld_clust
    ff.o(i.f_unlink) refers to ff.o(i.ld_dword) for ld_dword
    ff.o(i.f_unlink) refers to ff.o(i.ld_qword) for ld_qword
    ff.o(i.f_unlink) refers to ff.o(i.dir_sdi) for dir_sdi
    ff.o(i.f_unlink) refers to ff.o(i.dir_read) for dir_read
    ff.o(i.f_unlink) refers to ff.o(i.dir_remove) for dir_remove
    ff.o(i.f_unlink) refers to ff.o(i.remove_chain) for remove_chain
    ff.o(i.f_unlink) refers to ff.o(i.sync_fs) for sync_fs
    ff.o(i.f_unlink) refers to diskio.o(i.ff_memfree) for ff_memfree
    ff.o(i.f_write) refers to ff.o(i.validate) for validate
    ff.o(i.f_write) refers to ff.o(i.clmt_clust) for clmt_clust
    ff.o(i.f_write) refers to ff.o(i.create_chain) for create_chain
    ff.o(i.f_write) refers to diskio.o(i.disk_write) for disk_write
    ff.o(i.f_write) refers to ff.o(i.clust2sect) for clust2sect
    ff.o(i.f_write) refers to ff.o(i.mem_cpy) for mem_cpy
    ff.o(i.f_write) refers to diskio.o(i.disk_read) for disk_read
    ff.o(i.fill_fat_chain) refers to ff.o(i.put_fat) for put_fat
    ff.o(i.find_bitmap) refers to ff.o(i.move_window) for move_window
    ff.o(i.find_volume) refers to ff.o(i.get_ldnumber) for get_ldnumber
    ff.o(i.find_volume) refers to diskio.o(i.disk_status) for disk_status
    ff.o(i.find_volume) refers to diskio.o(i.disk_initialize) for disk_initialize
    ff.o(i.find_volume) refers to ff.o(i.check_fs) for check_fs
    ff.o(i.find_volume) refers to ff.o(i.ld_dword) for ld_dword
    ff.o(i.find_volume) refers to ff.o(i.ld_word) for ld_word
    ff.o(i.find_volume) refers to ff.o(i.ld_qword) for ld_qword
    ff.o(i.find_volume) refers to ff.o(i.clust2sect) for clust2sect
    ff.o(i.find_volume) refers to ff.o(i.move_window) for move_window
    ff.o(i.find_volume) refers to ff.o(.bss) for .bss
    ff.o(i.find_volume) refers to ff.o(.data) for .data
    ff.o(i.follow_path) refers to ff.o(i.dir_sdi) for dir_sdi
    ff.o(i.follow_path) refers to ff.o(i.create_name) for create_name
    ff.o(i.follow_path) refers to ff.o(i.dir_find) for dir_find
    ff.o(i.follow_path) refers to ff.o(i.ld_clust) for ld_clust
    ff.o(i.follow_path) refers to ff.o(i.ld_dword) for ld_dword
    ff.o(i.follow_path) refers to ff.o(i.ld_qword) for ld_qword
    ff.o(i.gen_numname) refers to ff.o(i.mem_cpy) for mem_cpy
    ff.o(i.get_fat) refers to ff.o(i.move_window) for move_window
    ff.o(i.get_fat) refers to ff.o(i.ld_word) for ld_word
    ff.o(i.get_fat) refers to ff.o(i.ld_dword) for ld_dword
    ff.o(i.get_fileinfo) refers to ff.o(i.get_xdir_info) for get_xdir_info
    ff.o(i.get_fileinfo) refers to mycc936.o(i.ff_convert) for ff_convert
    ff.o(i.get_fileinfo) refers to ff.o(i.ld_dword) for ld_dword
    ff.o(i.get_fileinfo) refers to ff.o(i.ld_word) for ld_word
    ff.o(i.get_xdir_info) refers to ff.o(i.ld_word) for ld_word
    ff.o(i.get_xdir_info) refers to mycc936.o(i.ff_convert) for ff_convert
    ff.o(i.get_xdir_info) refers to ff.o(i.ld_qword) for ld_qword
    ff.o(i.ld_clust) refers to ff.o(i.ld_word) for ld_word
    ff.o(i.load_obj_dir) refers to ff.o(i.dir_sdi) for dir_sdi
    ff.o(i.load_obj_dir) refers to ff.o(i.load_xdir) for load_xdir
    ff.o(i.load_xdir) refers to ff.o(i.move_window) for move_window
    ff.o(i.load_xdir) refers to ff.o(i.mem_cpy) for mem_cpy
    ff.o(i.load_xdir) refers to ff.o(i.dir_next) for dir_next
    ff.o(i.load_xdir) refers to ff.o(i.xdir_sum) for xdir_sum
    ff.o(i.load_xdir) refers to ff.o(i.ld_word) for ld_word
    ff.o(i.move_window) refers to ff.o(i.sync_window) for sync_window
    ff.o(i.move_window) refers to diskio.o(i.disk_read) for disk_read
    ff.o(i.pick_lfn) refers to ff.o(i.ld_word) for ld_word
    ff.o(i.pick_lfn) refers to ff.o(.constdata) for .constdata
    ff.o(i.put_fat) refers to ff.o(i.move_window) for move_window
    ff.o(i.put_fat) refers to ff.o(i.st_word) for st_word
    ff.o(i.put_fat) refers to ff.o(i.ld_dword) for ld_dword
    ff.o(i.put_fat) refers to ff.o(i.st_dword) for st_dword
    ff.o(i.putc_bfd) refers to ff.o(i.f_write) for f_write
    ff.o(i.remove_chain) refers to ff.o(i.put_fat) for put_fat
    ff.o(i.remove_chain) refers to ff.o(i.get_fat) for get_fat
    ff.o(i.remove_chain) refers to ff.o(i.change_bitmap) for change_bitmap
    ff.o(i.st_clust) refers to ff.o(i.st_word) for st_word
    ff.o(i.store_xdir) refers to ff.o(i.xdir_sum) for xdir_sum
    ff.o(i.store_xdir) refers to ff.o(i.st_word) for st_word
    ff.o(i.store_xdir) refers to ff.o(i.dir_sdi) for dir_sdi
    ff.o(i.store_xdir) refers to ff.o(i.mem_cpy) for mem_cpy
    ff.o(i.store_xdir) refers to ff.o(i.dir_next) for dir_next
    ff.o(i.store_xdir) refers to ff.o(i.move_window) for move_window
    ff.o(i.sync_fs) refers to ff.o(i.sync_window) for sync_window
    ff.o(i.sync_fs) refers to ff.o(i.mem_set) for mem_set
    ff.o(i.sync_fs) refers to ff.o(i.st_word) for st_word
    ff.o(i.sync_fs) refers to ff.o(i.st_dword) for st_dword
    ff.o(i.sync_fs) refers to diskio.o(i.disk_write) for disk_write
    ff.o(i.sync_fs) refers to diskio.o(i.disk_ioctl) for disk_ioctl
    ff.o(i.sync_window) refers to diskio.o(i.disk_write) for disk_write
    ff.o(i.validate) refers to diskio.o(i.disk_status) for disk_status
    ff.o(i.xname_sum) refers to mycc936.o(i.ff_wtoupper) for ff_wtoupper
    fontupd.o(i.font_init) refers to w25qxx.o(i.W25QXX_Init) for W25QXX_Init
    fontupd.o(i.font_init) refers to w25qxx.o(i.W25QXX_Read) for W25QXX_Read
    fontupd.o(i.font_init) refers to delay.o(i.delay_ms) for delay_ms
    fontupd.o(i.font_init) refers to fontupd.o(.bss) for .bss
    fontupd.o(i.fupd_prog) refers to lcd.o(i.LCD_ShowString) for LCD_ShowString
    fontupd.o(i.fupd_prog) refers to lcd.o(i.LCD_ShowNum) for LCD_ShowNum
    fontupd.o(i.updata_fontx) refers to malloc.o(i.mymalloc) for mymalloc
    fontupd.o(i.updata_fontx) refers to ff.o(i.f_open) for f_open
    fontupd.o(i.updata_fontx) refers to ff.o(i.f_close) for f_close
    fontupd.o(i.updata_fontx) refers to malloc.o(i.myfree) for myfree
    fontupd.o(i.updata_fontx) refers to ff.o(i.f_read) for f_read
    fontupd.o(i.updata_fontx) refers to w25qxx.o(i.W25QXX_Write) for W25QXX_Write
    fontupd.o(i.updata_fontx) refers to fontupd.o(i.fupd_prog) for fupd_prog
    fontupd.o(i.updata_fontx) refers to fontupd.o(.bss) for .bss
    fontupd.o(i.update_font) refers to malloc.o(i.mymalloc) for mymalloc
    fontupd.o(i.update_font) refers to strcpy.o(.text) for strcpy
    fontupd.o(i.update_font) refers to strcat.o(.text) for strcat
    fontupd.o(i.update_font) refers to ff.o(i.f_open) for f_open
    fontupd.o(i.update_font) refers to malloc.o(i.myfree) for myfree
    fontupd.o(i.update_font) refers to lcd.o(i.LCD_ShowString) for LCD_ShowString
    fontupd.o(i.update_font) refers to fontupd.o(i.fupd_prog) for fupd_prog
    fontupd.o(i.update_font) refers to w25qxx.o(i.W25QXX_Read) for W25QXX_Read
    fontupd.o(i.update_font) refers to w25qxx.o(i.W25QXX_Erase_Sector) for W25QXX_Erase_Sector
    fontupd.o(i.update_font) refers to fontupd.o(i.updata_fontx) for updata_fontx
    fontupd.o(i.update_font) refers to w25qxx.o(i.W25QXX_Write) for W25QXX_Write
    fontupd.o(i.update_font) refers to fontupd.o(.bss) for .bss
    fontupd.o(i.update_font) refers to fontupd.o(.constdata) for .constdata
    fontupd.o(.constdata) refers to fontupd.o(.conststring) for .conststring
    text.o(i.Get_HzMat) refers to w25qxx.o(i.W25QXX_Read) for W25QXX_Read
    text.o(i.Get_HzMat) refers to fontupd.o(.bss) for ftinfo
    text.o(i.Show_Font) refers to text.o(i.Get_HzMat) for Get_HzMat
    text.o(i.Show_Font) refers to lcd.o(i.LCD_Fast_DrawPoint) for LCD_Fast_DrawPoint
    text.o(i.Show_Font) refers to lcd.o(.data) for POINT_COLOR
    text.o(i.Show_Str) refers to text.o(i.Show_Font) for Show_Font
    text.o(i.Show_Str) refers to lcd.o(i.LCD_ShowChar) for LCD_ShowChar
    text.o(i.Show_Str_Mid) refers to strlen.o(.text) for strlen
    text.o(i.Show_Str_Mid) refers to text.o(i.Show_Str) for Show_Str
    text.o(i.Show_Str_Mid) refers to lcd.o(.bss) for lcddev
    usmart.o(i.TIM4_IRQHandler) refers to usmart_config.o(.data) for usmart_dev
    usmart.o(i.Timer4_Init) refers to sys.o(i.MY_NVIC_Init) for MY_NVIC_Init
    usmart.o(i.usmart_cmd_rec) refers to usmart_str.o(i.usmart_get_fname) for usmart_get_fname
    usmart.o(i.usmart_cmd_rec) refers to usmart_str.o(i.usmart_strcmp) for usmart_strcmp
    usmart.o(i.usmart_cmd_rec) refers to usmart_str.o(i.usmart_get_fparam) for usmart_get_fparam
    usmart.o(i.usmart_cmd_rec) refers to usmart_config.o(.data) for usmart_dev
    usmart.o(i.usmart_exe) refers to _printf_percent.o(.ARM.Collect$$_printf_percent$$00000000) for _printf_percent
    usmart.o(i.usmart_exe) refers to _printf_s.o(.ARM.Collect$$_printf_percent$$00000014) for _printf_s
    usmart.o(i.usmart_exe) refers to _printf_str.o(.text) for _printf_str
    usmart.o(i.usmart_exe) refers to _printf_c.o(.ARM.Collect$$_printf_percent$$00000013) for _printf_c
    usmart.o(i.usmart_exe) refers to _printf_d.o(.ARM.Collect$$_printf_percent$$00000009) for _printf_d
    usmart.o(i.usmart_exe) refers to _printf_dec.o(.text) for _printf_int_dec
    usmart.o(i.usmart_exe) refers to _printf_x.o(.ARM.Collect$$_printf_percent$$0000000C) for _printf_x
    usmart.o(i.usmart_exe) refers to _printf_hex_int_ll_ptr.o(.text) for _printf_longlong_hex
    usmart.o(i.usmart_exe) refers to _printf_u.o(.ARM.Collect$$_printf_percent$$0000000A) for _printf_u
    usmart.o(i.usmart_exe) refers to _printf_pad.o(.text) for _printf_pre_padding
    usmart.o(i.usmart_exe) refers to usmart_str.o(i.usmart_get_fname) for usmart_get_fname
    usmart.o(i.usmart_exe) refers to __2printf.o(.text) for __2printf
    usmart.o(i.usmart_exe) refers to usmart_str.o(i.usmart_get_parmpos) for usmart_get_parmpos
    usmart.o(i.usmart_exe) refers to usmart.o(i.usmart_reset_runtime) for usmart_reset_runtime
    usmart.o(i.usmart_exe) refers to usmart.o(i.usmart_get_runtime) for usmart_get_runtime
    usmart.o(i.usmart_exe) refers to usmart_config.o(.data) for usmart_dev
    usmart.o(i.usmart_get_runtime) refers to usmart_config.o(.data) for usmart_dev
    usmart.o(i.usmart_init) refers to usmart.o(i.Timer4_Init) for Timer4_Init
    usmart.o(i.usmart_init) refers to usmart_config.o(.data) for usmart_dev
    usmart.o(i.usmart_reset_runtime) refers to usmart_config.o(.data) for usmart_dev
    usmart.o(i.usmart_scan) refers to usmart.o(i.usmart_sys_cmd_exe) for usmart_sys_cmd_exe
    usmart.o(i.usmart_scan) refers to __2printf.o(.text) for __2printf
    usmart.o(i.usmart_scan) refers to usart.o(.data) for USART_RX_STA
    usmart.o(i.usmart_scan) refers to usart.o(.bss) for USART_RX_BUF
    usmart.o(i.usmart_scan) refers to usmart_config.o(.data) for usmart_dev
    usmart.o(i.usmart_sys_cmd_exe) refers to _printf_percent.o(.ARM.Collect$$_printf_percent$$00000000) for _printf_percent
    usmart.o(i.usmart_sys_cmd_exe) refers to _printf_s.o(.ARM.Collect$$_printf_percent$$00000014) for _printf_s
    usmart.o(i.usmart_sys_cmd_exe) refers to _printf_str.o(.text) for _printf_str
    usmart.o(i.usmart_sys_cmd_exe) refers to _printf_pad.o(.text) for _printf_pre_padding
    usmart.o(i.usmart_sys_cmd_exe) refers to _printf_x.o(.ARM.Collect$$_printf_percent$$0000000C) for _printf_x
    usmart.o(i.usmart_sys_cmd_exe) refers to _printf_hex_int_ll_ptr.o(.text) for _printf_longlong_hex
    usmart.o(i.usmart_sys_cmd_exe) refers to _printf_u.o(.ARM.Collect$$_printf_percent$$0000000A) for _printf_u
    usmart.o(i.usmart_sys_cmd_exe) refers to _printf_dec.o(.text) for _printf_int_dec
    usmart.o(i.usmart_sys_cmd_exe) refers to usmart_str.o(i.usmart_get_cmdname) for usmart_get_cmdname
    usmart.o(i.usmart_sys_cmd_exe) refers to usmart_str.o(i.usmart_strcmp) for usmart_strcmp
    usmart.o(i.usmart_sys_cmd_exe) refers to __2printf.o(.text) for __2printf
    usmart.o(i.usmart_sys_cmd_exe) refers to usmart.o(.data) for .data
    usmart.o(i.usmart_sys_cmd_exe) refers to usmart_config.o(.data) for usmart_dev
    usmart.o(i.usmart_sys_cmd_exe) refers to usmart_str.o(i.usmart_get_fname) for usmart_get_fname
    usmart.o(i.usmart_sys_cmd_exe) refers to usmart_str.o(i.usmart_get_aparm) for usmart_get_aparm
    usmart.o(i.usmart_sys_cmd_exe) refers to usmart_str.o(i.usmart_str2num) for usmart_str2num
    usmart.o(.data) refers to usmart.o(.conststring) for .conststring
    usmart_config.o(.data) refers to usmart.o(i.read_addr) for read_addr
    usmart_config.o(.data) refers to usmart_config.o(.conststring) for .conststring
    usmart_config.o(.data) refers to usmart.o(i.write_addr) for write_addr
    usmart_config.o(.data) refers to common.o(i.atk_8266_send_cmd) for atk_8266_send_cmd
    usmart_config.o(.data) refers to common.o(i.atk_8266_quit_trans) for atk_8266_quit_trans
    usmart_config.o(.data) refers to usmart_config.o(.data) for usmart_nametab
    usmart_config.o(.data) refers to usmart.o(i.usmart_init) for usmart_init
    usmart_config.o(.data) refers to usmart.o(i.usmart_cmd_rec) for usmart_cmd_rec
    usmart_config.o(.data) refers to usmart.o(i.usmart_exe) for usmart_exe
    usmart_config.o(.data) refers to usmart.o(i.usmart_scan) for usmart_scan
    usmart_str.o(i.usmart_get_fname) refers to usmart_str.o(i.usmart_strcmp) for usmart_strcmp
    usmart_str.o(i.usmart_get_fname) refers to usmart_str.o(i.usmart_search_nextc) for usmart_search_nextc
    usmart_str.o(i.usmart_get_fparam) refers to usmart_str.o(i.usmart_get_aparm) for usmart_get_aparm
    usmart_str.o(i.usmart_get_fparam) refers to usmart_str.o(i.usmart_str2num) for usmart_str2num
    usmart_str.o(i.usmart_get_fparam) refers to usmart_str.o(i.usmart_get_parmpos) for usmart_get_parmpos
    usmart_str.o(i.usmart_get_fparam) refers to usmart_str.o(i.usmart_strlen) for usmart_strlen
    usmart_str.o(i.usmart_get_fparam) refers to usmart_str.o(i.usmart_strcopy) for usmart_strcopy
    usmart_str.o(i.usmart_get_fparam) refers to usmart_config.o(.data) for usmart_dev
    usmart_str.o(i.usmart_get_parmpos) refers to usmart_config.o(.data) for usmart_dev
    usmart_str.o(i.usmart_str2num) refers to usmart_str.o(i.usmart_pow) for usmart_pow
    apsta.o(i.atk_8266_apsta_test) refers to _printf_percent.o(.ARM.Collect$$_printf_percent$$00000000) for _printf_percent
    apsta.o(i.atk_8266_apsta_test) refers to _printf_s.o(.ARM.Collect$$_printf_percent$$00000014) for _printf_s
    apsta.o(i.atk_8266_apsta_test) refers to _printf_str.o(.text) for _printf_str
    apsta.o(i.atk_8266_apsta_test) refers to _printf_pad.o(.text) for _printf_pre_padding
    apsta.o(i.atk_8266_apsta_test) refers to _printf_d.o(.ARM.Collect$$_printf_percent$$00000009) for _printf_d
    apsta.o(i.atk_8266_apsta_test) refers to _printf_dec.o(.text) for _printf_int_dec
    apsta.o(i.atk_8266_apsta_test) refers to malloc.o(i.mymalloc) for mymalloc
    apsta.o(i.atk_8266_apsta_test) refers to common.o(i.atk_8266_send_cmd) for atk_8266_send_cmd
    apsta.o(i.atk_8266_apsta_test) refers to __2sprintf.o(.text) for __2sprintf
    apsta.o(i.atk_8266_apsta_test) refers to lcd.o(i.LCD_Clear) for LCD_Clear
    apsta.o(i.atk_8266_apsta_test) refers to text.o(i.Show_Str) for Show_Str
    apsta.o(i.atk_8266_apsta_test) refers to delay.o(i.delay_ms) for delay_ms
    apsta.o(i.atk_8266_apsta_test) refers to common.o(i.atk_8266_netpro_sel) for atk_8266_netpro_sel
    apsta.o(i.atk_8266_apsta_test) refers to text.o(i.Show_Str_Mid) for Show_Str_Mid
    apsta.o(i.atk_8266_apsta_test) refers to common.o(i.atk_8266_ip_set) for atk_8266_ip_set
    apsta.o(i.atk_8266_apsta_test) refers to key.o(i.KEY_Scan) for KEY_Scan
    apsta.o(i.atk_8266_apsta_test) refers to common.o(i.atk_8266_mode_cofig) for atk_8266_mode_cofig
    apsta.o(i.atk_8266_apsta_test) refers to lcd.o(i.LCD_Fill) for LCD_Fill
    apsta.o(i.atk_8266_apsta_test) refers to common.o(i.atk_8266_get_ip) for atk_8266_get_ip
    apsta.o(i.atk_8266_apsta_test) refers to common.o(i.atk_8266_wificonf_show) for atk_8266_wificonf_show
    apsta.o(i.atk_8266_apsta_test) refers to malloc.o(i.myfree) for myfree
    apsta.o(i.atk_8266_apsta_test) refers to common.o(.data) for wifiap_password
    apsta.o(i.atk_8266_apsta_test) refers to common.o(.data) for wifista_password
    apsta.o(i.atk_8266_apsta_test) refers to common.o(.data) for wifista_ssid
    apsta.o(i.atk_8266_apsta_test) refers to lcd.o(.data) for POINT_COLOR
    apsta.o(i.atk_8266_apsta_test) refers to common.o(.data) for ATK_ESP8266_WORKMODE_TBL
    apsta.o(i.atk_8266_apsta_test) refers to common.o(.data) for wifista_encryption
    apsta.o(i.atk_8266_apsta_test) refers to usart3.o(.data) for USART3_RX_STA
    apsta.o(i.atk_8266_apsta_test) refers to common.o(i.atk_8266_send_data) for atk_8266_send_data
    apsta.o(i.atk_8266_apsta_test) refers to __2printf.o(.text) for __2printf
    apsta.o(i.atk_8266_apsta_test) refers to common.o(i.atk_8266_consta_check) for atk_8266_consta_check
    apsta.o(i.atk_8266_apsta_test) refers to common.o(i.atk_8266_at_response) for atk_8266_at_response
    apsta.o(i.atk_8266_apsta_test) refers to usart3.o(.bss) for USART3_RX_BUF
    common.o(i.atk_8266_apsta_check) refers to common.o(i.atk_8266_quit_trans) for atk_8266_quit_trans
    common.o(i.atk_8266_apsta_check) refers to common.o(i.atk_8266_send_cmd) for atk_8266_send_cmd
    common.o(i.atk_8266_apsta_check) refers to common.o(i.atk_8266_check_cmd) for atk_8266_check_cmd
    common.o(i.atk_8266_at_response) refers to _printf_percent.o(.ARM.Collect$$_printf_percent$$00000000) for _printf_percent
    common.o(i.atk_8266_at_response) refers to _printf_s.o(.ARM.Collect$$_printf_percent$$00000014) for _printf_s
    common.o(i.atk_8266_at_response) refers to _printf_str.o(.text) for _printf_str
    common.o(i.atk_8266_at_response) refers to __2printf.o(.text) for __2printf
    common.o(i.atk_8266_at_response) refers to usart3.o(.data) for USART3_RX_STA
    common.o(i.atk_8266_at_response) refers to usart3.o(.bss) for USART3_RX_BUF
    common.o(i.atk_8266_check_cmd) refers to strstr.o(.text) for strstr
    common.o(i.atk_8266_check_cmd) refers to usart3.o(.data) for USART3_RX_STA
    common.o(i.atk_8266_check_cmd) refers to usart3.o(.bss) for USART3_RX_BUF
    common.o(i.atk_8266_consta_check) refers to common.o(i.atk_8266_quit_trans) for atk_8266_quit_trans
    common.o(i.atk_8266_consta_check) refers to common.o(i.atk_8266_send_cmd) for atk_8266_send_cmd
    common.o(i.atk_8266_consta_check) refers to common.o(i.atk_8266_check_cmd) for atk_8266_check_cmd
    common.o(i.atk_8266_get_ip) refers to _printf_percent.o(.ARM.Collect$$_printf_percent$$00000000) for _printf_percent
    common.o(i.atk_8266_get_ip) refers to _printf_s.o(.ARM.Collect$$_printf_percent$$00000014) for _printf_s
    common.o(i.atk_8266_get_ip) refers to _printf_str.o(.text) for _printf_str
    common.o(i.atk_8266_get_ip) refers to malloc.o(i.mymalloc) for mymalloc
    common.o(i.atk_8266_get_ip) refers to common.o(i.atk_8266_send_cmd) for atk_8266_send_cmd
    common.o(i.atk_8266_get_ip) refers to common.o(i.atk_8266_check_cmd) for atk_8266_check_cmd
    common.o(i.atk_8266_get_ip) refers to strstr.o(.text) for strstr
    common.o(i.atk_8266_get_ip) refers to __2sprintf.o(.text) for __2sprintf
    common.o(i.atk_8266_get_ip) refers to text.o(i.Show_Str) for Show_Str
    common.o(i.atk_8266_get_ip) refers to malloc.o(i.myfree) for myfree
    common.o(i.atk_8266_get_ip) refers to common.o(.data) for .data
    common.o(i.atk_8266_get_keynum) refers to common.o(i.atk_8266_key_staset) for atk_8266_key_staset
    common.o(i.atk_8266_get_keynum) refers to touch.o(.data) for tp_dev
    common.o(i.atk_8266_get_keynum) refers to common.o(.data) for .data
    common.o(i.atk_8266_get_wanip) refers to _printf_percent.o(.ARM.Collect$$_printf_percent$$00000000) for _printf_percent
    common.o(i.atk_8266_get_wanip) refers to _printf_s.o(.ARM.Collect$$_printf_percent$$00000014) for _printf_s
    common.o(i.atk_8266_get_wanip) refers to _printf_str.o(.text) for _printf_str
    common.o(i.atk_8266_get_wanip) refers to common.o(i.atk_8266_send_cmd) for atk_8266_send_cmd
    common.o(i.atk_8266_get_wanip) refers to common.o(i.atk_8266_check_cmd) for atk_8266_check_cmd
    common.o(i.atk_8266_get_wanip) refers to strstr.o(.text) for strstr
    common.o(i.atk_8266_get_wanip) refers to __2sprintf.o(.text) for __2sprintf
    common.o(i.atk_8266_ip_set) refers to lcd.o(i.LCD_Clear) for LCD_Clear
    common.o(i.atk_8266_ip_set) refers to text.o(i.Show_Str_Mid) for Show_Str_Mid
    common.o(i.atk_8266_ip_set) refers to text.o(i.Show_Str) for Show_Str
    common.o(i.atk_8266_ip_set) refers to common.o(i.atk_8266_load_keyboard) for atk_8266_load_keyboard
    common.o(i.atk_8266_ip_set) refers to common.o(i.atk_8266_get_keynum) for atk_8266_get_keynum
    common.o(i.atk_8266_ip_set) refers to lcd.o(i.LCD_Fill) for LCD_Fill
    common.o(i.atk_8266_ip_set) refers to delay.o(i.delay_ms) for delay_ms
    common.o(i.atk_8266_ip_set) refers to common.o(i.atk_8266_at_response) for atk_8266_at_response
    common.o(i.atk_8266_ip_set) refers to lcd.o(.data) for POINT_COLOR
    common.o(i.atk_8266_ip_set) refers to common.o(.data) for .data
    common.o(i.atk_8266_key_staset) refers to lcd.o(i.LCD_Fill) for LCD_Fill
    common.o(i.atk_8266_key_staset) refers to text.o(i.Show_Str_Mid) for Show_Str_Mid
    common.o(i.atk_8266_key_staset) refers to common.o(.data) for .data
    common.o(i.atk_8266_load_keyboard) refers to lcd.o(i.LCD_Fill) for LCD_Fill
    common.o(i.atk_8266_load_keyboard) refers to lcd.o(i.LCD_DrawRectangle) for LCD_DrawRectangle
    common.o(i.atk_8266_load_keyboard) refers to text.o(i.Show_Str_Mid) for Show_Str_Mid
    common.o(i.atk_8266_load_keyboard) refers to lcd.o(.data) for POINT_COLOR
    common.o(i.atk_8266_load_keyboard) refers to common.o(.data) for .data
    common.o(i.atk_8266_mode_cofig) refers to _printf_percent.o(.ARM.Collect$$_printf_percent$$00000000) for _printf_percent
    common.o(i.atk_8266_mode_cofig) refers to _printf_s.o(.ARM.Collect$$_printf_percent$$00000014) for _printf_s
    common.o(i.atk_8266_mode_cofig) refers to _printf_str.o(.text) for _printf_str
    common.o(i.atk_8266_mode_cofig) refers to malloc.o(i.mymalloc) for mymalloc
    common.o(i.atk_8266_mode_cofig) refers to common.o(i.atk_8266_netpro_sel) for atk_8266_netpro_sel
    common.o(i.atk_8266_mode_cofig) refers to lcd.o(i.LCD_Clear) for LCD_Clear
    common.o(i.atk_8266_mode_cofig) refers to common.o(i.atk_8266_ip_set) for atk_8266_ip_set
    common.o(i.atk_8266_mode_cofig) refers to __2sprintf.o(.text) for __2sprintf
    common.o(i.atk_8266_mode_cofig) refers to delay.o(i.delay_ms) for delay_ms
    common.o(i.atk_8266_mode_cofig) refers to common.o(i.atk_8266_send_cmd) for atk_8266_send_cmd
    common.o(i.atk_8266_mode_cofig) refers to text.o(i.Show_Str_Mid) for Show_Str_Mid
    common.o(i.atk_8266_mode_cofig) refers to text.o(i.Show_Str) for Show_Str
    common.o(i.atk_8266_mode_cofig) refers to key.o(i.KEY_Scan) for KEY_Scan
    common.o(i.atk_8266_mode_cofig) refers to malloc.o(i.myfree) for myfree
    common.o(i.atk_8266_mode_cofig) refers to common.o(.data) for .data
    common.o(i.atk_8266_mode_cofig) refers to lcd.o(.data) for POINT_COLOR
    common.o(i.atk_8266_msg_show) refers to _printf_percent.o(.ARM.Collect$$_printf_percent$$00000000) for _printf_percent
    common.o(i.atk_8266_msg_show) refers to _printf_s.o(.ARM.Collect$$_printf_percent$$00000014) for _printf_s
    common.o(i.atk_8266_msg_show) refers to _printf_str.o(.text) for _printf_str
    common.o(i.atk_8266_msg_show) refers to malloc.o(i.mymalloc) for mymalloc
    common.o(i.atk_8266_msg_show) refers to common.o(i.atk_8266_send_cmd) for atk_8266_send_cmd
    common.o(i.atk_8266_msg_show) refers to delay.o(i.delay_ms) for delay_ms
    common.o(i.atk_8266_msg_show) refers to __2sprintf.o(.text) for __2sprintf
    common.o(i.atk_8266_msg_show) refers to common.o(i.atk_8266_check_cmd) for atk_8266_check_cmd
    common.o(i.atk_8266_msg_show) refers to strstr.o(.text) for strstr
    common.o(i.atk_8266_msg_show) refers to text.o(i.Show_Str) for Show_Str
    common.o(i.atk_8266_msg_show) refers to malloc.o(i.myfree) for myfree
    common.o(i.atk_8266_msg_show) refers to lcd.o(.data) for POINT_COLOR
    common.o(i.atk_8266_msg_show) refers to common.o(.data) for .data
    common.o(i.atk_8266_mtest_ui) refers to lcd.o(i.LCD_Clear) for LCD_Clear
    common.o(i.atk_8266_mtest_ui) refers to text.o(i.Show_Str_Mid) for Show_Str_Mid
    common.o(i.atk_8266_mtest_ui) refers to text.o(i.Show_Str) for Show_Str
    common.o(i.atk_8266_mtest_ui) refers to common.o(i.atk_8266_msg_show) for atk_8266_msg_show
    common.o(i.atk_8266_mtest_ui) refers to lcd.o(.data) for POINT_COLOR
    common.o(i.atk_8266_netpro_sel) refers to _printf_percent.o(.ARM.Collect$$_printf_percent$$00000000) for _printf_percent
    common.o(i.atk_8266_netpro_sel) refers to _printf_s.o(.ARM.Collect$$_printf_percent$$00000014) for _printf_s
    common.o(i.atk_8266_netpro_sel) refers to _printf_str.o(.text) for _printf_str
    common.o(i.atk_8266_netpro_sel) refers to lcd.o(i.LCD_Clear) for LCD_Clear
    common.o(i.atk_8266_netpro_sel) refers to malloc.o(i.mymalloc) for mymalloc
    common.o(i.atk_8266_netpro_sel) refers to __2sprintf.o(.text) for __2sprintf
    common.o(i.atk_8266_netpro_sel) refers to text.o(i.Show_Str_Mid) for Show_Str_Mid
    common.o(i.atk_8266_netpro_sel) refers to text.o(i.Show_Str) for Show_Str
    common.o(i.atk_8266_netpro_sel) refers to key.o(i.KEY_Scan) for KEY_Scan
    common.o(i.atk_8266_netpro_sel) refers to delay.o(i.delay_ms) for delay_ms
    common.o(i.atk_8266_netpro_sel) refers to common.o(i.atk_8266_at_response) for atk_8266_at_response
    common.o(i.atk_8266_netpro_sel) refers to malloc.o(i.myfree) for myfree
    common.o(i.atk_8266_netpro_sel) refers to lcd.o(.data) for POINT_COLOR
    common.o(i.atk_8266_quit_trans) refers to delay.o(i.delay_ms) for delay_ms
    common.o(i.atk_8266_quit_trans) refers to common.o(i.atk_8266_send_cmd) for atk_8266_send_cmd
    common.o(i.atk_8266_send_cmd) refers to _printf_percent.o(.ARM.Collect$$_printf_percent$$00000000) for _printf_percent
    common.o(i.atk_8266_send_cmd) refers to _printf_s.o(.ARM.Collect$$_printf_percent$$00000014) for _printf_s
    common.o(i.atk_8266_send_cmd) refers to _printf_str.o(.text) for _printf_str
    common.o(i.atk_8266_send_cmd) refers to usart3.o(i.u3_printf) for u3_printf
    common.o(i.atk_8266_send_cmd) refers to delay.o(i.delay_ms) for delay_ms
    common.o(i.atk_8266_send_cmd) refers to common.o(i.atk_8266_check_cmd) for atk_8266_check_cmd
    common.o(i.atk_8266_send_cmd) refers to __2printf.o(.text) for __2printf
    common.o(i.atk_8266_send_cmd) refers to usart3.o(.data) for USART3_RX_STA
    common.o(i.atk_8266_send_data) refers to usart3.o(i.u3_printf) for u3_printf
    common.o(i.atk_8266_send_data) refers to delay.o(i.delay_ms) for delay_ms
    common.o(i.atk_8266_send_data) refers to common.o(i.atk_8266_check_cmd) for atk_8266_check_cmd
    common.o(i.atk_8266_send_data) refers to usart3.o(.data) for USART3_RX_STA
    common.o(i.atk_8266_test) refers to text.o(i.Show_Str_Mid) for Show_Str_Mid
    common.o(i.atk_8266_test) refers to common.o(i.atk_8266_quit_trans) for atk_8266_quit_trans
    common.o(i.atk_8266_test) refers to common.o(i.atk_8266_send_cmd) for atk_8266_send_cmd
    common.o(i.atk_8266_test) refers to text.o(i.Show_Str) for Show_Str
    common.o(i.atk_8266_test) refers to delay.o(i.delay_ms) for delay_ms
    common.o(i.atk_8266_test) refers to lcd.o(i.LCD_Fill) for LCD_Fill
    common.o(i.atk_8266_test) refers to common.o(i.atk_8266_mtest_ui) for atk_8266_mtest_ui
    common.o(i.atk_8266_test) refers to common.o(i.atk_8266_at_response) for atk_8266_at_response
    common.o(i.atk_8266_test) refers to key.o(i.KEY_Scan) for KEY_Scan
    common.o(i.atk_8266_test) refers to lcd.o(i.LCD_Clear) for LCD_Clear
    common.o(i.atk_8266_test) refers to apsta.o(i.atk_8266_apsta_test) for atk_8266_apsta_test
    common.o(i.atk_8266_test) refers to wifista.o(i.atk_8266_wifista_test) for atk_8266_wifista_test
    common.o(i.atk_8266_test) refers to wifiap.o(i.atk_8266_wifiap_test) for atk_8266_wifiap_test
    common.o(i.atk_8266_test) refers to lcd.o(.data) for POINT_COLOR
    common.o(i.atk_8266_wificonf_show) refers to text.o(i.Show_Str) for Show_Str
    common.o(i.atk_8266_wificonf_show) refers to lcd.o(.data) for POINT_COLOR
    common.o(.data) refers to common.o(.conststring) for .conststring
    common.o(.data) refers to common.o(.conststring) for .conststring
    common.o(.data) refers to common.o(.conststring) for .conststring
    common.o(.data) refers to common.o(.conststring) for .conststring
    common.o(.data) refers to common.o(.conststring) for .conststring
    common.o(.data) refers to common.o(.conststring) for .conststring
    wifiap.o(i.atk_8266_wifiap_test) refers to _printf_percent.o(.ARM.Collect$$_printf_percent$$00000000) for _printf_percent
    wifiap.o(i.atk_8266_wifiap_test) refers to _printf_s.o(.ARM.Collect$$_printf_percent$$00000014) for _printf_s
    wifiap.o(i.atk_8266_wifiap_test) refers to _printf_str.o(.text) for _printf_str
    wifiap.o(i.atk_8266_wifiap_test) refers to _printf_pad.o(.text) for _printf_pre_padding
    wifiap.o(i.atk_8266_wifiap_test) refers to _printf_d.o(.ARM.Collect$$_printf_percent$$00000009) for _printf_d
    wifiap.o(i.atk_8266_wifiap_test) refers to _printf_dec.o(.text) for _printf_int_dec
    wifiap.o(i.atk_8266_wifiap_test) refers to malloc.o(i.mymalloc) for mymalloc
    wifiap.o(i.atk_8266_wifiap_test) refers to common.o(i.atk_8266_netpro_sel) for atk_8266_netpro_sel
    wifiap.o(i.atk_8266_wifiap_test) refers to lcd.o(i.LCD_Clear) for LCD_Clear
    wifiap.o(i.atk_8266_wifiap_test) refers to text.o(i.Show_Str_Mid) for Show_Str_Mid
    wifiap.o(i.atk_8266_wifiap_test) refers to text.o(i.Show_Str) for Show_Str
    wifiap.o(i.atk_8266_wifiap_test) refers to common.o(i.atk_8266_ip_set) for atk_8266_ip_set
    wifiap.o(i.atk_8266_wifiap_test) refers to __2sprintf.o(.text) for __2sprintf
    wifiap.o(i.atk_8266_wifiap_test) refers to common.o(i.atk_8266_send_cmd) for atk_8266_send_cmd
    wifiap.o(i.atk_8266_wifiap_test) refers to key.o(i.KEY_Scan) for KEY_Scan
    wifiap.o(i.atk_8266_wifiap_test) refers to lcd.o(i.LCD_Fill) for LCD_Fill
    wifiap.o(i.atk_8266_wifiap_test) refers to delay.o(i.delay_ms) for delay_ms
    wifiap.o(i.atk_8266_wifiap_test) refers to common.o(i.atk_8266_get_wanip) for atk_8266_get_wanip
    wifiap.o(i.atk_8266_wifiap_test) refers to common.o(i.atk_8266_wificonf_show) for atk_8266_wificonf_show
    wifiap.o(i.atk_8266_wifiap_test) refers to common.o(i.atk_8266_quit_trans) for atk_8266_quit_trans
    wifiap.o(i.atk_8266_wifiap_test) refers to malloc.o(i.myfree) for myfree
    wifiap.o(i.atk_8266_wifiap_test) refers to common.o(i.atk_8266_send_data) for atk_8266_send_data
    wifiap.o(i.atk_8266_wifiap_test) refers to common.o(.data) for portnum
    wifiap.o(i.atk_8266_wifiap_test) refers to lcd.o(.data) for POINT_COLOR
    wifiap.o(i.atk_8266_wifiap_test) refers to common.o(.data) for ATK_ESP8266_WORKMODE_TBL
    wifiap.o(i.atk_8266_wifiap_test) refers to common.o(.data) for wifiap_encryption
    wifiap.o(i.atk_8266_wifiap_test) refers to usart3.o(.data) for USART3_RX_STA
    wifiap.o(i.atk_8266_wifiap_test) refers to usart3.o(i.u3_printf) for u3_printf
    wifiap.o(i.atk_8266_wifiap_test) refers to __2printf.o(.text) for __2printf
    wifiap.o(i.atk_8266_wifiap_test) refers to common.o(i.atk_8266_consta_check) for atk_8266_consta_check
    wifiap.o(i.atk_8266_wifiap_test) refers to common.o(i.atk_8266_at_response) for atk_8266_at_response
    wifiap.o(i.atk_8266_wifiap_test) refers to usart3.o(.bss) for USART3_RX_BUF
    wifista.o(i.atk_8266_wifista_test) refers to _printf_percent.o(.ARM.Collect$$_printf_percent$$00000000) for _printf_percent
    wifista.o(i.atk_8266_wifista_test) refers to _printf_s.o(.ARM.Collect$$_printf_percent$$00000014) for _printf_s
    wifista.o(i.atk_8266_wifista_test) refers to _printf_str.o(.text) for _printf_str
    wifista.o(i.atk_8266_wifista_test) refers to _printf_pad.o(.text) for _printf_pre_padding
    wifista.o(i.atk_8266_wifista_test) refers to _printf_d.o(.ARM.Collect$$_printf_percent$$00000009) for _printf_d
    wifista.o(i.atk_8266_wifista_test) refers to _printf_dec.o(.text) for _printf_int_dec
    wifista.o(i.atk_8266_wifista_test) refers to malloc.o(i.mymalloc) for mymalloc
    wifista.o(i.atk_8266_wifista_test) refers to common.o(i.atk_8266_send_cmd) for atk_8266_send_cmd
    wifista.o(i.atk_8266_wifista_test) refers to delay.o(i.delay_ms) for delay_ms
    wifista.o(i.atk_8266_wifista_test) refers to __2sprintf.o(.text) for __2sprintf
    wifista.o(i.atk_8266_wifista_test) refers to common.o(i.atk_8266_netpro_sel) for atk_8266_netpro_sel
    wifista.o(i.atk_8266_wifista_test) refers to lcd.o(i.LCD_Clear) for LCD_Clear
    wifista.o(i.atk_8266_wifista_test) refers to text.o(i.Show_Str_Mid) for Show_Str_Mid
    wifista.o(i.atk_8266_wifista_test) refers to text.o(i.Show_Str) for Show_Str
    wifista.o(i.atk_8266_wifista_test) refers to common.o(i.atk_8266_ip_set) for atk_8266_ip_set
    wifista.o(i.atk_8266_wifista_test) refers to key.o(i.KEY_Scan) for KEY_Scan
    wifista.o(i.atk_8266_wifista_test) refers to lcd.o(i.LCD_Fill) for LCD_Fill
    wifista.o(i.atk_8266_wifista_test) refers to common.o(i.atk_8266_get_wanip) for atk_8266_get_wanip
    wifista.o(i.atk_8266_wifista_test) refers to common.o(i.atk_8266_wificonf_show) for atk_8266_wificonf_show
    wifista.o(i.atk_8266_wifista_test) refers to common.o(i.atk_8266_quit_trans) for atk_8266_quit_trans
    wifista.o(i.atk_8266_wifista_test) refers to malloc.o(i.myfree) for myfree
    wifista.o(i.atk_8266_wifista_test) refers to common.o(i.atk_8266_send_data) for atk_8266_send_data
    wifista.o(i.atk_8266_wifista_test) refers to common.o(.data) for wifista_password
    wifista.o(i.atk_8266_wifista_test) refers to common.o(.data) for wifista_ssid
    wifista.o(i.atk_8266_wifista_test) refers to common.o(.data) for portnum
    wifista.o(i.atk_8266_wifista_test) refers to wifista.o(.data) for .data
    wifista.o(i.atk_8266_wifista_test) refers to lcd.o(.data) for POINT_COLOR
    wifista.o(i.atk_8266_wifista_test) refers to common.o(.data) for ATK_ESP8266_WORKMODE_TBL
    wifista.o(i.atk_8266_wifista_test) refers to common.o(.data) for wifista_encryption
    wifista.o(i.atk_8266_wifista_test) refers to usart3.o(.data) for USART3_RX_STA
    wifista.o(i.atk_8266_wifista_test) refers to usart3.o(i.u3_printf) for u3_printf
    wifista.o(i.atk_8266_wifista_test) refers to __2printf.o(.text) for __2printf
    wifista.o(i.atk_8266_wifista_test) refers to common.o(i.atk_8266_consta_check) for atk_8266_consta_check
    wifista.o(i.atk_8266_wifista_test) refers to common.o(i.atk_8266_at_response) for atk_8266_at_response
    wifista.o(i.atk_8266_wifista_test) refers to usart3.o(.bss) for USART3_RX_BUF
    use_no_semi_2.o(.text) refers (Special) to use_no_semi.o(.text) for __use_no_semihosting_swi
    llsdiv.o(.text) refers to lludivv7m.o(.text) for __aeabi_uldivmod
    vsprintf.o(.text) refers (Special) to _printf_a.o(.ARM.Collect$$_printf_percent$$00000006) for _printf_a
    vsprintf.o(.text) refers (Special) to _printf_c.o(.ARM.Collect$$_printf_percent$$00000013) for _printf_c
    vsprintf.o(.text) refers (Special) to _printf_charcount.o(.text) for _printf_charcount
    vsprintf.o(.text) refers (Special) to _printf_d.o(.ARM.Collect$$_printf_percent$$00000009) for _printf_d
    vsprintf.o(.text) refers (Special) to _printf_e.o(.ARM.Collect$$_printf_percent$$00000004) for _printf_e
    vsprintf.o(.text) refers (Special) to _printf_f.o(.ARM.Collect$$_printf_percent$$00000003) for _printf_f
    vsprintf.o(.text) refers (Special) to printf1.o(x$fpl$printf1) for _printf_fp_dec
    vsprintf.o(.text) refers (Special) to printf2.o(x$fpl$printf2) for _printf_fp_hex
    vsprintf.o(.text) refers (Special) to _printf_g.o(.ARM.Collect$$_printf_percent$$00000005) for _printf_g
    vsprintf.o(.text) refers (Special) to _printf_i.o(.ARM.Collect$$_printf_percent$$00000008) for _printf_i
    vsprintf.o(.text) refers (Special) to _printf_dec.o(.text) for _printf_int_dec
    vsprintf.o(.text) refers (Special) to _printf_l.o(.ARM.Collect$$_printf_percent$$00000012) for _printf_l
    vsprintf.o(.text) refers (Special) to _printf_lc.o(.ARM.Collect$$_printf_percent$$00000015) for _printf_lc
    vsprintf.o(.text) refers (Special) to _printf_ll.o(.ARM.Collect$$_printf_percent$$00000007) for _printf_ll
    vsprintf.o(.text) refers (Special) to _printf_lld.o(.ARM.Collect$$_printf_percent$$0000000E) for _printf_lld
    vsprintf.o(.text) refers (Special) to _printf_lli.o(.ARM.Collect$$_printf_percent$$0000000D) for _printf_lli
    vsprintf.o(.text) refers (Special) to _printf_llo.o(.ARM.Collect$$_printf_percent$$00000010) for _printf_llo
    vsprintf.o(.text) refers (Special) to _printf_llu.o(.ARM.Collect$$_printf_percent$$0000000F) for _printf_llu
    vsprintf.o(.text) refers (Special) to _printf_llx.o(.ARM.Collect$$_printf_percent$$00000011) for _printf_llx
    vsprintf.o(.text) refers (Special) to _printf_longlong_dec.o(.text) for _printf_longlong_dec
    vsprintf.o(.text) refers (Special) to _printf_hex_int_ll_ptr.o(.text) for _printf_longlong_hex
    vsprintf.o(.text) refers (Special) to _printf_oct_int_ll.o(.text) for _printf_longlong_oct
    vsprintf.o(.text) refers (Special) to _printf_ls.o(.ARM.Collect$$_printf_percent$$00000016) for _printf_ls
    vsprintf.o(.text) refers (Special) to _printf_n.o(.ARM.Collect$$_printf_percent$$00000001) for _printf_n
    vsprintf.o(.text) refers (Special) to _printf_o.o(.ARM.Collect$$_printf_percent$$0000000B) for _printf_o
    vsprintf.o(.text) refers (Special) to _printf_p.o(.ARM.Collect$$_printf_percent$$00000002) for _printf_p
    vsprintf.o(.text) refers (Special) to _printf_percent.o(.ARM.Collect$$_printf_percent$$00000000) for _printf_percent
    vsprintf.o(.text) refers (Special) to _printf_pad.o(.text) for _printf_post_padding
    vsprintf.o(.text) refers (Special) to _printf_s.o(.ARM.Collect$$_printf_percent$$00000014) for _printf_s
    vsprintf.o(.text) refers (Special) to _printf_str.o(.text) for _printf_str
    vsprintf.o(.text) refers (Special) to _printf_truncate.o(.text) for _printf_truncate_signed
    vsprintf.o(.text) refers (Special) to _printf_u.o(.ARM.Collect$$_printf_percent$$0000000A) for _printf_u
    vsprintf.o(.text) refers (Special) to _printf_wctomb.o(.text) for _printf_wctomb
    vsprintf.o(.text) refers (Special) to _printf_x.o(.ARM.Collect$$_printf_percent$$0000000C) for _printf_x
    vsprintf.o(.text) refers to _printf_char_common.o(.text) for _printf_char_common
    vsprintf.o(.text) refers to _sputc.o(.text) for _sputc
    __2printf.o(.text) refers to _printf_char_file.o(.text) for _printf_char_file
    __2printf.o(.text) refers to usart.o(.data) for __stdout
    __2sprintf.o(.text) refers to _printf_char_common.o(.text) for _printf_char_common
    __2sprintf.o(.text) refers to _sputc.o(.text) for _sputc
    noretval__2printf.o(.text) refers to _printf_char_file.o(.text) for _printf_char_file
    noretval__2printf.o(.text) refers to usart.o(.data) for __stdout
    noretval__2sprintf.o(.text) refers to _printf_char_common.o(.text) for _printf_char_common
    noretval__2sprintf.o(.text) refers to _sputc.o(.text) for _sputc
    __printf.o(.text) refers to _printf_percent.o(.ARM.Collect$$_printf_percent$$00000000) for _printf_percent
    _printf_str.o(.text) refers (Special) to _printf_char.o(.text) for _printf_cs_common
    _printf_str.o(.text) refers (Weak) to _printf_pad.o(.text) for _printf_pre_padding
    _printf_str.o(.text) refers (Weak) to _printf_pad.o(.text) for _printf_post_padding
    _printf_dec.o(.text) refers (Weak) to _printf_truncate.o(.text) for _printf_truncate_signed
    _printf_dec.o(.text) refers (Weak) to _printf_truncate.o(.text) for _printf_truncate_unsigned
    _printf_dec.o(.text) refers to _printf_intcommon.o(.text) for _printf_int_common
    _printf_longlong_dec.o(.text) refers to lludiv10.o(.text) for _ll_udiv10
    _printf_longlong_dec.o(.text) refers to _printf_intcommon.o(.text) for _printf_int_common
    _printf_hex_ll.o(.text) refers to _printf_intcommon.o(.text) for _printf_int_common
    _printf_hex_ll.o(.text) refers to _printf_hex_ll.o(.constdata) for .constdata
    _printf_hex_int.o(.text) refers (Weak) to _printf_truncate.o(.text) for _printf_truncate_unsigned
    _printf_hex_int.o(.text) refers to _printf_intcommon.o(.text) for _printf_int_common
    _printf_hex_int.o(.text) refers to _printf_hex_int.o(.constdata) for .constdata
    _printf_hex_int_ll.o(.text) refers to _printf_intcommon.o(.text) for _printf_int_common
    _printf_hex_int_ll.o(.text) refers (Weak) to _printf_truncate.o(.text) for _printf_truncate_unsigned
    _printf_hex_int_ll.o(.text) refers to _printf_hex_int_ll.o(.constdata) for .constdata
    _printf_hex_ptr.o(.text) refers to _printf_intcommon.o(.text) for _printf_int_common
    _printf_hex_ptr.o(.text) refers to _printf_hex_ptr.o(.constdata) for .constdata
    _printf_hex_int_ptr.o(.text) refers to _printf_intcommon.o(.text) for _printf_int_common
    _printf_hex_int_ptr.o(.text) refers (Weak) to _printf_truncate.o(.text) for _printf_truncate_unsigned
    _printf_hex_int_ptr.o(.text) refers to _printf_hex_int_ptr.o(.constdata) for .constdata
    _printf_hex_ll_ptr.o(.text) refers to _printf_intcommon.o(.text) for _printf_int_common
    _printf_hex_ll_ptr.o(.text) refers to _printf_hex_ll_ptr.o(.constdata) for .constdata
    _printf_hex_int_ll_ptr.o(.text) refers to _printf_intcommon.o(.text) for _printf_int_common
    _printf_hex_int_ll_ptr.o(.text) refers (Weak) to _printf_truncate.o(.text) for _printf_truncate_unsigned
    _printf_hex_int_ll_ptr.o(.text) refers to _printf_hex_int_ll_ptr.o(.constdata) for .constdata
    __printf_flags.o(.text) refers to _printf_percent.o(.ARM.Collect$$_printf_percent$$00000000) for _printf_percent
    __printf_flags.o(.text) refers to __printf_flags.o(.constdata) for .constdata
    __printf_ss.o(.text) refers to _printf_percent.o(.ARM.Collect$$_printf_percent$$00000000) for _printf_percent
    __printf_flags_ss.o(.text) refers to _printf_percent.o(.ARM.Collect$$_printf_percent$$00000000) for _printf_percent
    __printf_flags_ss.o(.text) refers to __printf_flags_ss.o(.constdata) for .constdata
    __printf_wp.o(.text) refers to __printf_wp.o(i._is_digit) for _is_digit
    __printf_wp.o(.text) refers to _printf_percent.o(.ARM.Collect$$_printf_percent$$00000000) for _printf_percent
    __printf_flags_wp.o(.text) refers to __printf_wp.o(i._is_digit) for _is_digit
    __printf_flags_wp.o(.text) refers to _printf_percent.o(.ARM.Collect$$_printf_percent$$00000000) for _printf_percent
    __printf_flags_wp.o(.text) refers to __printf_flags_wp.o(.constdata) for .constdata
    __printf_ss_wp.o(.text) refers to __printf_wp.o(i._is_digit) for _is_digit
    __printf_ss_wp.o(.text) refers to _printf_percent.o(.ARM.Collect$$_printf_percent$$00000000) for _printf_percent
    __printf_flags_ss_wp.o(.text) refers to __printf_wp.o(i._is_digit) for _is_digit
    __printf_flags_ss_wp.o(.text) refers to _printf_percent.o(.ARM.Collect$$_printf_percent$$00000000) for _printf_percent
    __printf_flags_ss_wp.o(.text) refers to __printf_flags_ss_wp.o(.constdata) for .constdata
    _printf_c.o(.ARM.Collect$$_printf_percent$$00000013) refers (Weak) to _printf_char.o(.text) for _printf_char
    _printf_s.o(.ARM.Collect$$_printf_percent$$00000014) refers (Weak) to _printf_char.o(.text) for _printf_string
    _printf_x.o(.ARM.Collect$$_printf_percent$$0000000C) refers (Weak) to _printf_hex_int_ll_ptr.o(.text) for _printf_int_hex
    _printf_d.o(.ARM.Collect$$_printf_percent$$00000009) refers (Weak) to _printf_dec.o(.text) for _printf_int_dec
    _printf_u.o(.ARM.Collect$$_printf_percent$$0000000A) refers (Weak) to _printf_dec.o(.text) for _printf_int_dec
    _printf_percent.o(.ARM.Collect$$_printf_percent$$00000000) refers (Special) to _printf_percent_end.o(.ARM.Collect$$_printf_percent$$00000017) for _printf_percent_end
    _printf_lld.o(.ARM.Collect$$_printf_percent$$0000000E) refers (Special) to _printf_ll.o(.ARM.Collect$$_printf_percent$$00000007) for _printf_ll
    _printf_lld.o(.ARM.Collect$$_printf_percent$$0000000E) refers (Weak) to _printf_longlong_dec.o(.text) for _printf_longlong_dec
    rt_memcpy_v6.o(.text) refers to rt_memcpy_w.o(.text) for __aeabi_memcpy4
    rt_memclr.o(.text) refers to rt_memclr_w.o(.text) for _memset_w
    __main.o(!!!main) refers to __rtentry.o(.ARM.Collect$$rtentry$$00000000) for __rt_entry
    daddsub_clz.o(x$fpl$dadd) refers (Special) to usenofp.o(x$fpl$usenofp) for __I$use$fp
    daddsub_clz.o(x$fpl$dadd) refers to daddsub_clz.o(x$fpl$dsub) for _dsub1
    daddsub_clz.o(x$fpl$dadd) refers to dretinf.o(x$fpl$dretinf) for __fpl_dretinf
    daddsub_clz.o(x$fpl$dadd) refers to dnaninf.o(x$fpl$dnaninf) for __fpl_dnaninf
    daddsub_clz.o(x$fpl$drsb) refers (Special) to usenofp.o(x$fpl$usenofp) for __I$use$fp
    daddsub_clz.o(x$fpl$drsb) refers to daddsub_clz.o(x$fpl$dadd) for _dadd1
    daddsub_clz.o(x$fpl$drsb) refers to daddsub_clz.o(x$fpl$dsub) for _dsub1
    daddsub_clz.o(x$fpl$dsub) refers (Special) to usenofp.o(x$fpl$usenofp) for __I$use$fp
    daddsub_clz.o(x$fpl$dsub) refers to daddsub_clz.o(x$fpl$dadd) for _dadd1
    daddsub_clz.o(x$fpl$dsub) refers to dnaninf.o(x$fpl$dnaninf) for __fpl_dnaninf
    dfixu.o(x$fpl$dfixu) refers (Special) to usenofp.o(x$fpl$usenofp) for __I$use$fp
    dfixu.o(x$fpl$dfixu) refers to dnaninf.o(x$fpl$dnaninf) for __fpl_dnaninf
    dfixu.o(x$fpl$dfixur) refers (Special) to usenofp.o(x$fpl$usenofp) for __I$use$fp
    dfixu.o(x$fpl$dfixur) refers to dnaninf.o(x$fpl$dnaninf) for __fpl_dnaninf
    dflt_clz.o(x$fpl$dfltu) refers (Special) to usenofp.o(x$fpl$usenofp) for __I$use$fp
    dflt_clz.o(x$fpl$dflt) refers (Special) to usenofp.o(x$fpl$usenofp) for __I$use$fp
    dflt_clz.o(x$fpl$dfltn) refers (Special) to usenofp.o(x$fpl$usenofp) for __I$use$fp
    dleqf.o(x$fpl$dleqf) refers (Special) to usenofp.o(x$fpl$usenofp) for __I$use$fp
    dleqf.o(x$fpl$dleqf) refers to dnaninf.o(x$fpl$dnaninf) for __fpl_dnaninf
    dleqf.o(x$fpl$dleqf) refers to dcmpi.o(x$fpl$dcmpinf) for __fpl_dcmp_Inf
    dmul.o(x$fpl$dmul) refers (Special) to usenofp.o(x$fpl$usenofp) for __I$use$fp
    dmul.o(x$fpl$dmul) refers to dretinf.o(x$fpl$dretinf) for __fpl_dretinf
    dmul.o(x$fpl$dmul) refers to dnaninf.o(x$fpl$dnaninf) for __fpl_dnaninf
    drleqf.o(x$fpl$drleqf) refers (Special) to usenofp.o(x$fpl$usenofp) for __I$use$fp
    drleqf.o(x$fpl$drleqf) refers to dleqf.o(x$fpl$dleqf) for __fpl_dcmple_InfNaN
    f2d.o(x$fpl$f2d) refers (Special) to usenofp.o(x$fpl$usenofp) for __I$use$fp
    f2d.o(x$fpl$f2d) refers to fnaninf.o(x$fpl$fnaninf) for __fpl_fnaninf
    f2d.o(x$fpl$f2d) refers to dretinf.o(x$fpl$dretinf) for __fpl_dretinf
    sqrt.o(i.__hardfp_sqrt) refers (Special) to usenofp.o(x$fpl$usenofp) for __I$use$fp
    sqrt.o(i.__hardfp_sqrt) refers to dsqrt_umaal.o(x$fpl$dsqrt) for _dsqrt
    sqrt.o(i.__hardfp_sqrt) refers to _rserrno.o(.text) for __set_errno
    sqrt.o(i.__softfp_sqrt) refers (Special) to usenofp.o(x$fpl$usenofp) for __I$use$fp
    sqrt.o(i.__softfp_sqrt) refers to dsqrt_umaal.o(x$fpl$dsqrt) for _dsqrt
    sqrt.o(i.__softfp_sqrt) refers to _rserrno.o(.text) for __set_errno
    sqrt.o(i.sqrt) refers (Special) to usenofp.o(x$fpl$usenofp) for __I$use$fp
    sqrt.o(i.sqrt) refers to dsqrt_umaal.o(x$fpl$dsqrt) for _dsqrt
    sqrt.o(i.sqrt) refers to _rserrno.o(.text) for __set_errno
    sqrt_x.o(i.____hardfp_sqrt$lsc) refers (Special) to usenofp.o(x$fpl$usenofp) for __I$use$fp
    sqrt_x.o(i.____hardfp_sqrt$lsc) refers to dleqf.o(x$fpl$dleqf) for __aeabi_cdcmple
    sqrt_x.o(i.____hardfp_sqrt$lsc) refers to _rserrno.o(.text) for __set_errno
    sqrt_x.o(i.____hardfp_sqrt$lsc) refers to dsqrt_umaal.o(x$fpl$dsqrt) for _dsqrt
    sqrt_x.o(i.____softfp_sqrt$lsc) refers (Special) to usenofp.o(x$fpl$usenofp) for __I$use$fp
    sqrt_x.o(i.____softfp_sqrt$lsc) refers to dleqf.o(x$fpl$dleqf) for __aeabi_cdcmple
    sqrt_x.o(i.____softfp_sqrt$lsc) refers to _rserrno.o(.text) for __set_errno
    sqrt_x.o(i.____softfp_sqrt$lsc) refers to dsqrt_umaal.o(x$fpl$dsqrt) for _dsqrt
    sqrt_x.o(i.__sqrt$lsc) refers (Special) to usenofp.o(x$fpl$usenofp) for __I$use$fp
    sqrt_x.o(i.__sqrt$lsc) refers to dleqf.o(x$fpl$dleqf) for __aeabi_cdcmple
    sqrt_x.o(i.__sqrt$lsc) refers to _rserrno.o(.text) for __set_errno
    sqrt_x.o(i.__sqrt$lsc) refers to dsqrt_umaal.o(x$fpl$dsqrt) for _dsqrt
    __rtentry.o(.ARM.Collect$$rtentry$$00000000) refers (Special) to __rtentry2.o(.ARM.Collect$$rtentry$$0000000A) for __rt_entry_li
    __rtentry.o(.ARM.Collect$$rtentry$$00000000) refers (Special) to __rtentry2.o(.ARM.Collect$$rtentry$$0000000D) for __rt_entry_main
    __rtentry.o(.ARM.Collect$$rtentry$$00000000) refers (Special) to __rtentry2.o(.ARM.Collect$$rtentry$$0000000C) for __rt_entry_postli_1
    __rtentry.o(.ARM.Collect$$rtentry$$00000000) refers (Special) to __rtentry2.o(.ARM.Collect$$rtentry$$00000009) for __rt_entry_postsh_1
    __rtentry.o(.ARM.Collect$$rtentry$$00000000) refers (Special) to __rtentry2.o(.ARM.Collect$$rtentry$$00000002) for __rt_entry_presh_1
    __rtentry.o(.ARM.Collect$$rtentry$$00000000) refers (Special) to __rtentry4.o(.ARM.Collect$$rtentry$$00000004) for __rt_entry_sh
    aeabi_ldiv0_sigfpe.o(.text) refers to rt_div0.o(.text) for __rt_div0
    _rserrno.o(.text) refers to rt_errno_addr_intlibspace.o(.text) for __aeabi_errno_addr
    _printf_intcommon.o(.text) refers (Weak) to _printf_pad.o(.text) for _printf_pre_padding
    _printf_intcommon.o(.text) refers (Weak) to _printf_pad.o(.text) for _printf_pre_padding
    _printf_intcommon.o(.text) refers (Weak) to _printf_pad.o(.text) for _printf_post_padding
    _printf_char_common.o(.text) refers to __printf_flags_ss_wp.o(.text) for __printf
    _printf_char.o(.text) refers (Weak) to _printf_str.o(.text) for _printf_str
    _printf_char_file.o(.text) refers to _printf_char_common.o(.text) for _printf_char_common
    _printf_char_file.o(.text) refers to ferror.o(.text) for ferror
    _printf_char_file.o(.text) refers to usart.o(i.fputc) for fputc
    _printf_wctomb.o(.text) refers (Special) to _printf_wchar.o(.text) for _printf_lcs_common
    _printf_wctomb.o(.text) refers to _wcrtomb.o(.text) for _wcrtomb
    _printf_wctomb.o(.text) refers (Weak) to _printf_pad.o(.text) for _printf_pre_padding
    _printf_wctomb.o(.text) refers (Weak) to _printf_pad.o(.text) for _printf_post_padding
    _printf_wctomb.o(.text) refers to _printf_wctomb.o(.constdata) for .constdata
    _printf_wctomb.o(.constdata) refers (Special) to _printf_wchar.o(.text) for _printf_lcs_common
    _printf_oct_ll.o(.text) refers to _printf_intcommon.o(.text) for _printf_int_common
    _printf_oct_int.o(.text) refers (Weak) to _printf_truncate.o(.text) for _printf_truncate_unsigned
    _printf_oct_int.o(.text) refers to _printf_intcommon.o(.text) for _printf_int_common
    _printf_oct_int_ll.o(.text) refers to _printf_intcommon.o(.text) for _printf_int_common
    _printf_oct_int_ll.o(.text) refers (Weak) to _printf_truncate.o(.text) for _printf_truncate_unsigned
    _printf_n.o(.ARM.Collect$$_printf_percent$$00000001) refers (Weak) to _printf_charcount.o(.text) for _printf_charcount
    _printf_p.o(.ARM.Collect$$_printf_percent$$00000002) refers (Weak) to _printf_hex_int_ll_ptr.o(.text) for _printf_hex_ptr
    _printf_o.o(.ARM.Collect$$_printf_percent$$0000000B) refers (Weak) to _printf_oct_int_ll.o(.text) for _printf_int_oct
    _printf_i.o(.ARM.Collect$$_printf_percent$$00000008) refers (Weak) to _printf_dec.o(.text) for _printf_int_dec
    _printf_f.o(.ARM.Collect$$_printf_percent$$00000003) refers (Weak) to printf1.o(x$fpl$printf1) for _printf_fp_dec
    _printf_e.o(.ARM.Collect$$_printf_percent$$00000004) refers (Weak) to printf1.o(x$fpl$printf1) for _printf_fp_dec
    _printf_g.o(.ARM.Collect$$_printf_percent$$00000005) refers (Weak) to printf1.o(x$fpl$printf1) for _printf_fp_dec
    _printf_a.o(.ARM.Collect$$_printf_percent$$00000006) refers (Weak) to printf2.o(x$fpl$printf2) for _printf_fp_hex
    _printf_lli.o(.ARM.Collect$$_printf_percent$$0000000D) refers (Special) to _printf_ll.o(.ARM.Collect$$_printf_percent$$00000007) for _printf_ll
    _printf_lli.o(.ARM.Collect$$_printf_percent$$0000000D) refers (Weak) to _printf_longlong_dec.o(.text) for _printf_longlong_dec
    _printf_llu.o(.ARM.Collect$$_printf_percent$$0000000F) refers (Special) to _printf_ll.o(.ARM.Collect$$_printf_percent$$00000007) for _printf_ll
    _printf_llu.o(.ARM.Collect$$_printf_percent$$0000000F) refers (Weak) to _printf_longlong_dec.o(.text) for _printf_longlong_dec
    _printf_lc.o(.ARM.Collect$$_printf_percent$$00000015) refers (Special) to _printf_l.o(.ARM.Collect$$_printf_percent$$00000012) for _printf_l
    _printf_lc.o(.ARM.Collect$$_printf_percent$$00000015) refers (Weak) to _printf_wchar.o(.text) for _printf_wchar
    _printf_ls.o(.ARM.Collect$$_printf_percent$$00000016) refers (Special) to _printf_l.o(.ARM.Collect$$_printf_percent$$00000012) for _printf_l
    _printf_ls.o(.ARM.Collect$$_printf_percent$$00000016) refers (Weak) to _printf_wchar.o(.text) for _printf_wstring
    _printf_llo.o(.ARM.Collect$$_printf_percent$$00000010) refers (Special) to _printf_ll.o(.ARM.Collect$$_printf_percent$$00000007) for _printf_ll
    _printf_llo.o(.ARM.Collect$$_printf_percent$$00000010) refers (Weak) to _printf_oct_int_ll.o(.text) for _printf_ll_oct
    _printf_llx.o(.ARM.Collect$$_printf_percent$$00000011) refers (Special) to _printf_ll.o(.ARM.Collect$$_printf_percent$$00000007) for _printf_ll
    _printf_llx.o(.ARM.Collect$$_printf_percent$$00000011) refers (Weak) to _printf_hex_int_ll_ptr.o(.text) for _printf_ll_hex
    dcmpi.o(x$fpl$dcmpinf) refers (Special) to usenofp.o(x$fpl$usenofp) for __I$use$fp
    dnaninf.o(x$fpl$dnaninf) refers (Special) to usenofp.o(x$fpl$usenofp) for __I$use$fp
    dretinf.o(x$fpl$dretinf) refers (Special) to usenofp.o(x$fpl$usenofp) for __I$use$fp
    dsqrt_umaal.o(x$fpl$dsqrt) refers (Special) to usenofp.o(x$fpl$usenofp) for __I$use$fp
    dsqrt_umaal.o(x$fpl$dsqrt) refers to dnaninf.o(x$fpl$dnaninf) for __fpl_dnaninf
    fnaninf.o(x$fpl$fnaninf) refers (Special) to usenofp.o(x$fpl$usenofp) for __I$use$fp
    printf1.o(x$fpl$printf1) refers to _printf_fp_dec.o(.text) for _printf_fp_dec_real
    printf2.o(x$fpl$printf2) refers to _printf_fp_hex.o(.text) for _printf_fp_hex_real
    printf2b.o(x$fpl$printf2) refers to _printf_fp_hex.o(.text) for _printf_fp_hex_real
    __rtentry2.o(.ARM.Collect$$rtentry$$00000008) refers to boardinit2.o(.text) for _platform_post_stackheap_init
    __rtentry2.o(.ARM.Collect$$rtentry$$0000000A) refers to libinit.o(.ARM.Collect$$libinit$$00000000) for __rt_lib_init
    __rtentry2.o(.ARM.Collect$$rtentry$$0000000B) refers to boardinit3.o(.text) for _platform_post_lib_init
    __rtentry2.o(.ARM.Collect$$rtentry$$0000000D) refers to test.o(i.main) for main
    __rtentry2.o(.ARM.Collect$$rtentry$$0000000D) refers to exit.o(.text) for exit
    __rtentry2.o(.ARM.exidx) refers to __rtentry2.o(.ARM.Collect$$rtentry$$00000001) for .ARM.Collect$$rtentry$$00000001
    __rtentry2.o(.ARM.exidx) refers to __rtentry2.o(.ARM.Collect$$rtentry$$00000008) for .ARM.Collect$$rtentry$$00000008
    __rtentry2.o(.ARM.exidx) refers to __rtentry2.o(.ARM.Collect$$rtentry$$0000000A) for .ARM.Collect$$rtentry$$0000000A
    __rtentry2.o(.ARM.exidx) refers to __rtentry2.o(.ARM.Collect$$rtentry$$0000000B) for .ARM.Collect$$rtentry$$0000000B
    __rtentry2.o(.ARM.exidx) refers to __rtentry2.o(.ARM.Collect$$rtentry$$0000000D) for .ARM.Collect$$rtentry$$0000000D
    __rtentry4.o(.ARM.Collect$$rtentry$$00000004) refers to sys_stackheap_outer.o(.text) for __user_setup_stackheap
    __rtentry4.o(.ARM.exidx) refers to __rtentry4.o(.ARM.Collect$$rtentry$$00000004) for .ARM.Collect$$rtentry$$00000004
    rt_div0.o(.text) refers to defsig_fpe_outer.o(.text) for __rt_SIGFPE
    rt_errno_addr.o(.text) refers to rt_errno_addr.o(.bss) for __aeabi_errno_addr_data
    rt_errno_addr_intlibspace.o(.text) refers to libspace.o(.bss) for __libspace_start
    _printf_fp_dec.o(.text) refers (Special) to usenofp.o(x$fpl$usenofp) for __I$use$fp
    _printf_fp_dec.o(.text) refers (Special) to lc_numeric_c.o(locale$$code) for _get_lc_numeric
    _printf_fp_dec.o(.text) refers to bigflt0.o(.text) for _btod_etento
    _printf_fp_dec.o(.text) refers to btod.o(CL$$btod_d2e) for _btod_d2e
    _printf_fp_dec.o(.text) refers to btod.o(CL$$btod_ediv) for _btod_ediv
    _printf_fp_dec.o(.text) refers to btod.o(CL$$btod_emul) for _btod_emul
    _printf_fp_dec.o(.text) refers to lludiv10.o(.text) for _ll_udiv10
    _printf_fp_dec.o(.text) refers to fpclassify.o(i.__ARM_fpclassify) for __ARM_fpclassify
    _printf_fp_dec.o(.text) refers to _printf_fp_infnan.o(.text) for _printf_fp_infnan
    _printf_fp_dec.o(.text) refers (Weak) to _printf_pad.o(.text) for _printf_pre_padding
    _printf_fp_dec.o(.text) refers (Weak) to _printf_pad.o(.text) for _printf_pre_padding
    _printf_fp_dec.o(.text) refers to rt_locale_intlibspace.o(.text) for __rt_locale
    _printf_fp_dec.o(.text) refers (Weak) to _printf_pad.o(.text) for _printf_post_padding
    _printf_fp_hex.o(.text) refers (Special) to usenofp.o(x$fpl$usenofp) for __I$use$fp
    _printf_fp_hex.o(.text) refers to fpclassify.o(i.__ARM_fpclassify) for __ARM_fpclassify
    _printf_fp_hex.o(.text) refers to _printf_fp_infnan.o(.text) for _printf_fp_infnan
    _printf_fp_hex.o(.text) refers (Weak) to _printf_pad.o(.text) for _printf_pre_padding
    _printf_fp_hex.o(.text) refers (Weak) to _printf_pad.o(.text) for _printf_pre_padding
    _printf_fp_hex.o(.text) refers (Weak) to _printf_pad.o(.text) for _printf_post_padding
    _printf_fp_hex.o(.text) refers to _printf_fp_hex.o(.constdata) for .constdata
    _printf_fp_hex.o(.constdata) refers (Special) to usenofp.o(x$fpl$usenofp) for __I$use$fp
    _printf_wchar.o(.text) refers (Weak) to _printf_wctomb.o(.text) for _printf_wctomb
    _wcrtomb.o(.text) refers to rt_ctype_table.o(.text) for __rt_ctype_table
    libspace.o(.text) refers to libspace.o(.bss) for __libspace_start
    sys_stackheap_outer.o(.text) refers to libspace.o(.text) for __user_perproc_libspace
    sys_stackheap_outer.o(.text) refers to startup_stm32f429xx.o(.text) for __user_initial_stackheap
    rt_ctype_table.o(.text) refers to rt_locale_intlibspace.o(.text) for __rt_locale
    rt_ctype_table.o(.text) refers to lc_ctype_c.o(locale$$code) for _get_lc_ctype
    rt_locale.o(.text) refers to rt_locale.o(.bss) for __rt_locale_data
    rt_locale_intlibspace.o(.text) refers to libspace.o(.bss) for __libspace_start
    _printf_fp_infnan.o(.text) refers (Weak) to _printf_pad.o(.text) for _printf_pre_padding
    _printf_fp_infnan.o(.text) refers (Weak) to _printf_pad.o(.text) for _printf_post_padding
    bigflt0.o(.text) refers (Special) to usenofp.o(x$fpl$usenofp) for __I$use$fp
    bigflt0.o(.text) refers to btod.o(CL$$btod_emul) for _btod_emul
    bigflt0.o(.text) refers to btod.o(CL$$btod_ediv) for _btod_ediv
    bigflt0.o(.text) refers to bigflt0.o(.constdata) for .constdata
    bigflt0.o(.constdata) refers (Special) to usenofp.o(x$fpl$usenofp) for __I$use$fp
    btod.o(CL$$btod_d2e) refers (Special) to usenofp.o(x$fpl$usenofp) for __I$use$fp
    btod.o(CL$$btod_d2e) refers to btod.o(CL$$btod_d2e_norm_op1) for _d2e_norm_op1
    btod.o(CL$$btod_d2e_norm_op1) refers (Special) to usenofp.o(x$fpl$usenofp) for __I$use$fp
    btod.o(CL$$btod_d2e_norm_op1) refers to btod.o(CL$$btod_d2e_denorm_low) for _d2e_denorm_low
    btod.o(CL$$btod_d2e_denorm_low) refers (Special) to usenofp.o(x$fpl$usenofp) for __I$use$fp
    btod.o(CL$$btod_emul) refers (Special) to usenofp.o(x$fpl$usenofp) for __I$use$fp
    btod.o(CL$$btod_emul) refers to btod.o(CL$$btod_mult_common) for __btod_mult_common
    btod.o(CL$$btod_emul) refers to btod.o(CL$$btod_e2e) for _e2e
    btod.o(CL$$btod_ediv) refers (Special) to usenofp.o(x$fpl$usenofp) for __I$use$fp
    btod.o(CL$$btod_ediv) refers to btod.o(CL$$btod_div_common) for __btod_div_common
    btod.o(CL$$btod_ediv) refers to btod.o(CL$$btod_e2e) for _e2e
    btod.o(CL$$btod_emuld) refers (Special) to usenofp.o(x$fpl$usenofp) for __I$use$fp
    btod.o(CL$$btod_emuld) refers to btod.o(CL$$btod_mult_common) for __btod_mult_common
    btod.o(CL$$btod_emuld) refers to btod.o(CL$$btod_e2d) for _e2d
    btod.o(CL$$btod_edivd) refers (Special) to usenofp.o(x$fpl$usenofp) for __I$use$fp
    btod.o(CL$$btod_edivd) refers to btod.o(CL$$btod_div_common) for __btod_div_common
    btod.o(CL$$btod_edivd) refers to btod.o(CL$$btod_e2d) for _e2d
    btod.o(CL$$btod_e2e) refers (Special) to usenofp.o(x$fpl$usenofp) for __I$use$fp
    btod.o(CL$$btod_e2d) refers (Special) to usenofp.o(x$fpl$usenofp) for __I$use$fp
    btod.o(CL$$btod_e2d) refers to btod.o(CL$$btod_e2e) for _e2e
    btod.o(CL$$btod_mult_common) refers (Special) to usenofp.o(x$fpl$usenofp) for __I$use$fp
    btod.o(CL$$btod_div_common) refers (Special) to usenofp.o(x$fpl$usenofp) for __I$use$fp
    lc_numeric_c.o(locale$$data) refers (Special) to libinit2.o(.ARM.Collect$$libinit$$00000016) for __rt_lib_init_lc_numeric_2
    lc_numeric_c.o(locale$$code) refers (Special) to libinit2.o(.ARM.Collect$$libinit$$00000016) for __rt_lib_init_lc_numeric_2
    lc_numeric_c.o(locale$$code) refers to strcmpv7m.o(.text) for strcmp
    lc_numeric_c.o(locale$$code) refers to lc_numeric_c.o(locale$$data) for __lcnum_c_name
    exit.o(.text) refers to rtexit.o(.ARM.Collect$$rtexit$$00000000) for __rt_exit
    defsig_fpe_outer.o(.text) refers to defsig_fpe_inner.o(.text) for __rt_SIGFPE_inner
    defsig_fpe_outer.o(.text) refers to defsig_exit.o(.text) for __sig_exit
    defsig_fpe_formal.o(.text) refers to rt_raise.o(.text) for __rt_raise
    libinit.o(.ARM.Collect$$libinit$$00000000) refers (Special) to libinit2.o(.ARM.Collect$$libinit$$0000002E) for __rt_lib_init_alloca_1
    libinit.o(.ARM.Collect$$libinit$$00000000) refers (Special) to libinit2.o(.ARM.Collect$$libinit$$0000002C) for __rt_lib_init_argv_1
    libinit.o(.ARM.Collect$$libinit$$00000000) refers (Special) to libinit2.o(.ARM.Collect$$libinit$$0000001B) for __rt_lib_init_atexit_1
    libinit.o(.ARM.Collect$$libinit$$00000000) refers (Special) to libinit2.o(.ARM.Collect$$libinit$$00000021) for __rt_lib_init_clock_1
    libinit.o(.ARM.Collect$$libinit$$00000000) refers (Special) to libinit2.o(.ARM.Collect$$libinit$$00000032) for __rt_lib_init_cpp_1
    libinit.o(.ARM.Collect$$libinit$$00000000) refers (Special) to libinit2.o(.ARM.Collect$$libinit$$00000030) for __rt_lib_init_exceptions_1
    libinit.o(.ARM.Collect$$libinit$$00000000) refers (Special) to libinit2.o(.ARM.Collect$$libinit$$00000001) for __rt_lib_init_fp_1
    libinit.o(.ARM.Collect$$libinit$$00000000) refers (Special) to libinit2.o(.ARM.Collect$$libinit$$0000001F) for __rt_lib_init_fp_trap_1
    libinit.o(.ARM.Collect$$libinit$$00000000) refers (Special) to libinit2.o(.ARM.Collect$$libinit$$00000023) for __rt_lib_init_getenv_1
    libinit.o(.ARM.Collect$$libinit$$00000000) refers (Special) to libinit2.o(.ARM.Collect$$libinit$$0000000A) for __rt_lib_init_heap_1
    libinit.o(.ARM.Collect$$libinit$$00000000) refers (Special) to libinit2.o(.ARM.Collect$$libinit$$00000011) for __rt_lib_init_lc_collate_1
    libinit.o(.ARM.Collect$$libinit$$00000000) refers (Special) to libinit2.o(.ARM.Collect$$libinit$$00000013) for __rt_lib_init_lc_ctype_1
    libinit.o(.ARM.Collect$$libinit$$00000000) refers (Special) to libinit2.o(.ARM.Collect$$libinit$$00000015) for __rt_lib_init_lc_monetary_1
    libinit.o(.ARM.Collect$$libinit$$00000000) refers (Special) to libinit2.o(.ARM.Collect$$libinit$$00000017) for __rt_lib_init_lc_numeric_1
    libinit.o(.ARM.Collect$$libinit$$00000000) refers (Special) to libinit2.o(.ARM.Collect$$libinit$$00000019) for __rt_lib_init_lc_time_1
    libinit.o(.ARM.Collect$$libinit$$00000000) refers (Special) to libinit2.o(.ARM.Collect$$libinit$$00000004) for __rt_lib_init_preinit_1
    libinit.o(.ARM.Collect$$libinit$$00000000) refers (Special) to libinit2.o(.ARM.Collect$$libinit$$0000000E) for __rt_lib_init_rand_1
    libinit.o(.ARM.Collect$$libinit$$00000000) refers (Special) to libinit2.o(.ARM.Collect$$libinit$$00000033) for __rt_lib_init_return
    libinit.o(.ARM.Collect$$libinit$$00000000) refers (Special) to libinit2.o(.ARM.Collect$$libinit$$0000001D) for __rt_lib_init_signal_1
    libinit.o(.ARM.Collect$$libinit$$00000000) refers (Special) to libinit2.o(.ARM.Collect$$libinit$$00000025) for __rt_lib_init_stdio_1
    libinit.o(.ARM.Collect$$libinit$$00000000) refers (Special) to libinit2.o(.ARM.Collect$$libinit$$0000000C) for __rt_lib_init_user_alloc_1
    istatus.o(x$fpl$ieeestatus) refers (Special) to usenofp.o(x$fpl$usenofp) for __I$use$fp
    fpclassify.o(i.__ARM_fpclassify) refers (Special) to usenofp.o(x$fpl$usenofp) for __I$use$fp
    rtexit.o(.ARM.Collect$$rtexit$$00000000) refers (Special) to rtexit2.o(.ARM.Collect$$rtexit$$00000004) for __rt_exit_exit
    rtexit.o(.ARM.Collect$$rtexit$$00000000) refers (Special) to rtexit2.o(.ARM.Collect$$rtexit$$00000003) for __rt_exit_ls
    rtexit.o(.ARM.Collect$$rtexit$$00000000) refers (Special) to rtexit2.o(.ARM.Collect$$rtexit$$00000002) for __rt_exit_prels_1
    rtexit.o(.ARM.exidx) refers (Special) to rtexit2.o(.ARM.Collect$$rtexit$$00000004) for __rt_exit_exit
    rtexit.o(.ARM.exidx) refers (Special) to rtexit2.o(.ARM.Collect$$rtexit$$00000003) for __rt_exit_ls
    rtexit.o(.ARM.exidx) refers (Special) to rtexit2.o(.ARM.Collect$$rtexit$$00000002) for __rt_exit_prels_1
    rtexit.o(.ARM.exidx) refers to rtexit.o(.ARM.Collect$$rtexit$$00000000) for .ARM.Collect$$rtexit$$00000000
    rt_raise.o(.text) refers to __raise.o(.text) for __raise
    rt_raise.o(.text) refers to usart.o(i._sys_exit) for _sys_exit
    lc_ctype_c.o(locale$$data) refers (Special) to libinit2.o(.ARM.Collect$$libinit$$00000012) for __rt_lib_init_lc_ctype_2
    lc_ctype_c.o(locale$$code) refers (Special) to libinit2.o(.ARM.Collect$$libinit$$00000012) for __rt_lib_init_lc_ctype_2
    lc_ctype_c.o(locale$$code) refers to strcmpv7m.o(.text) for strcmp
    lc_ctype_c.o(locale$$code) refers to lc_ctype_c.o(locale$$data) for __lcctype_c_name
    defsig_exit.o(.text) refers to usart.o(i._sys_exit) for _sys_exit
    defsig_fpe_inner.o(.text) refers to defsig_general.o(.text) for __default_signal_display
    libinit2.o(.ARM.Collect$$libinit$$00000001) refers to fpinit.o(x$fpl$fpinit) for _fp_init
    libinit2.o(.ARM.Collect$$libinit$$0000000F) refers (Weak) to rt_locale_intlibspace.o(.text) for __rt_locale
    libinit2.o(.ARM.Collect$$libinit$$00000010) refers to libinit2.o(.ARM.Collect$$libinit$$0000000F) for .ARM.Collect$$libinit$$0000000F
    libinit2.o(.ARM.Collect$$libinit$$00000012) refers to libinit2.o(.ARM.Collect$$libinit$$0000000F) for .ARM.Collect$$libinit$$0000000F
    libinit2.o(.ARM.Collect$$libinit$$00000012) refers (Weak) to lc_ctype_c.o(locale$$code) for _get_lc_ctype
    libinit2.o(.ARM.Collect$$libinit$$00000014) refers to libinit2.o(.ARM.Collect$$libinit$$0000000F) for .ARM.Collect$$libinit$$0000000F
    libinit2.o(.ARM.Collect$$libinit$$00000016) refers to libinit2.o(.ARM.Collect$$libinit$$0000000F) for .ARM.Collect$$libinit$$0000000F
    libinit2.o(.ARM.Collect$$libinit$$00000016) refers (Weak) to lc_numeric_c.o(locale$$code) for _get_lc_numeric
    libinit2.o(.ARM.Collect$$libinit$$00000018) refers to libinit2.o(.ARM.Collect$$libinit$$0000000F) for .ARM.Collect$$libinit$$0000000F
    libinit2.o(.ARM.Collect$$libinit$$00000026) refers to argv_veneer.o(.emb_text) for __ARM_argv_veneer
    libinit2.o(.ARM.Collect$$libinit$$00000027) refers to argv_veneer.o(.emb_text) for __ARM_argv_veneer
    rtexit2.o(.ARM.Collect$$rtexit$$00000003) refers to libshutdown.o(.ARM.Collect$$libshutdown$$00000000) for __rt_lib_shutdown
    rtexit2.o(.ARM.Collect$$rtexit$$00000004) refers to usart.o(i._sys_exit) for _sys_exit
    rtexit2.o(.ARM.exidx) refers to rtexit2.o(.ARM.Collect$$rtexit$$00000001) for .ARM.Collect$$rtexit$$00000001
    rtexit2.o(.ARM.exidx) refers to rtexit2.o(.ARM.Collect$$rtexit$$00000003) for .ARM.Collect$$rtexit$$00000003
    rtexit2.o(.ARM.exidx) refers to rtexit2.o(.ARM.Collect$$rtexit$$00000004) for .ARM.Collect$$rtexit$$00000004
    __raise.o(.text) refers to defsig.o(CL$$defsig) for __default_signal_handler
    defsig_general.o(.text) refers to usart.o(i._ttywrch) for _ttywrch
    argv_veneer.o(.emb_text) refers to no_argv.o(.text) for __ARM_get_argv
    defsig.o(CL$$defsig) refers to defsig_fpe_inner.o(.text) for __rt_SIGFPE_inner
    defsig.o(CL$$defsig) refers to defsig_rtmem_inner.o(.text) for __rt_SIGRTMEM_inner
    _get_argv_nomalloc.o(.text) refers (Special) to hrguard.o(.text) for __heap_region$guard
    _get_argv_nomalloc.o(.text) refers to defsig_rtmem_outer.o(.text) for __rt_SIGRTMEM
    _get_argv_nomalloc.o(.text) refers to sys_command.o(.text) for _sys_command_string
    libshutdown.o(.ARM.Collect$$libshutdown$$00000000) refers (Special) to libshutdown2.o(.ARM.Collect$$libshutdown$$00000002) for __rt_lib_shutdown_cpp_1
    libshutdown.o(.ARM.Collect$$libshutdown$$00000000) refers (Special) to libshutdown2.o(.ARM.Collect$$libshutdown$$00000007) for __rt_lib_shutdown_fp_trap_1
    libshutdown.o(.ARM.Collect$$libshutdown$$00000000) refers (Special) to libshutdown2.o(.ARM.Collect$$libshutdown$$0000000F) for __rt_lib_shutdown_heap_1
    libshutdown.o(.ARM.Collect$$libshutdown$$00000000) refers (Special) to libshutdown2.o(.ARM.Collect$$libshutdown$$00000010) for __rt_lib_shutdown_return
    libshutdown.o(.ARM.Collect$$libshutdown$$00000000) refers (Special) to libshutdown2.o(.ARM.Collect$$libshutdown$$0000000A) for __rt_lib_shutdown_signal_1
    libshutdown.o(.ARM.Collect$$libshutdown$$00000000) refers (Special) to libshutdown2.o(.ARM.Collect$$libshutdown$$00000004) for __rt_lib_shutdown_stdio_1
    libshutdown.o(.ARM.Collect$$libshutdown$$00000000) refers (Special) to libshutdown2.o(.ARM.Collect$$libshutdown$$0000000C) for __rt_lib_shutdown_user_alloc_1
    sys_command.o(.text) refers (Special) to use_no_semi.o(.text) for __I$use$semihosting
    sys_command.o(.text) refers (Special) to indicate_semi.o(.text) for __semihosting_library_function
    defsig_abrt_inner.o(.text) refers to defsig_general.o(.text) for __default_signal_display
    defsig_rtred_inner.o(.text) refers to defsig_general.o(.text) for __default_signal_display
    defsig_rtmem_inner.o(.text) refers to defsig_general.o(.text) for __default_signal_display
    defsig_rtmem_outer.o(.text) refers to defsig_rtmem_inner.o(.text) for __rt_SIGRTMEM_inner
    defsig_rtmem_outer.o(.text) refers to defsig_exit.o(.text) for __sig_exit
    defsig_rtmem_formal.o(.text) refers to rt_raise.o(.text) for __rt_raise
    defsig_stak_inner.o(.text) refers to defsig_general.o(.text) for __default_signal_display
    defsig_pvfn_inner.o(.text) refers to defsig_general.o(.text) for __default_signal_display
    defsig_cppl_inner.o(.text) refers to defsig_general.o(.text) for __default_signal_display
    defsig_segv_inner.o(.text) refers to defsig_general.o(.text) for __default_signal_display
    defsig_other.o(.text) refers to defsig_general.o(.text) for __default_signal_display


==============================================================================

Removing Unused input sections from the image.

    Removing test.o(.rev16_text), (4 bytes).
    Removing test.o(.revsh_text), (4 bytes).
    Removing test.o(.rrx_text), (6 bytes).
    Removing delay.o(.rev16_text), (4 bytes).
    Removing delay.o(.revsh_text), (4 bytes).
    Removing delay.o(.rrx_text), (6 bytes).
    Removing sys.o(.rev16_text), (4 bytes).
    Removing sys.o(.revsh_text), (4 bytes).
    Removing sys.o(.rrx_text), (6 bytes).
    Removing sys.o(.emb_text), (6 bytes).
    Removing sys.o(i.Ex_NVIC_Config), (104 bytes).
    Removing sys.o(i.Sys_Soft_Reset), (16 bytes).
    Removing sys.o(i.Sys_Standby), (64 bytes).
    Removing sys.o(i.WFI_SET), (4 bytes).
    Removing usart.o(.rev16_text), (4 bytes).
    Removing usart.o(.revsh_text), (4 bytes).
    Removing usart.o(.rrx_text), (6 bytes).
    Removing usart.o(i._ttywrch), (2 bytes).
    Removing myiic.o(.rev16_text), (4 bytes).
    Removing myiic.o(.revsh_text), (4 bytes).
    Removing myiic.o(.rrx_text), (6 bytes).
    Removing 24cxx.o(.rev16_text), (4 bytes).
    Removing 24cxx.o(.revsh_text), (4 bytes).
    Removing 24cxx.o(.rrx_text), (6 bytes).
    Removing 24cxx.o(i.AT24CXX_Check), (38 bytes).
    Removing 24cxx.o(i.AT24CXX_Read), (34 bytes).
    Removing 24cxx.o(i.AT24CXX_Write), (32 bytes).
    Removing key.o(.rev16_text), (4 bytes).
    Removing key.o(.revsh_text), (4 bytes).
    Removing key.o(.rrx_text), (6 bytes).
    Removing lcd.o(.rev16_text), (4 bytes).
    Removing lcd.o(.revsh_text), (4 bytes).
    Removing lcd.o(.rrx_text), (6 bytes).
    Removing lcd.o(i.LCD_BGR2RGB), (18 bytes).
    Removing lcd.o(i.LCD_Color_Fill), (108 bytes).
    Removing lcd.o(i.LCD_DisplayOff), (72 bytes).
    Removing lcd.o(i.LCD_DisplayOn), (72 bytes).
    Removing lcd.o(i.LCD_ReadPoint), (156 bytes).
    Removing lcd.o(i.LCD_ReadReg), (20 bytes).
    Removing lcd.o(i.LCD_Set_Window), (360 bytes).
    Removing lcd.o(i.LCD_ShowxNum), (134 bytes).
    Removing lcd.o(i.LCD_WriteRAM), (12 bytes).
    Removing lcd.o(i.opt_delay), (8 bytes).
    Removing ltdc.o(.rev16_text), (4 bytes).
    Removing ltdc.o(.revsh_text), (4 bytes).
    Removing ltdc.o(.rrx_text), (6 bytes).
    Removing ltdc.o(i.LTDC_Color_Fill), (176 bytes).
    Removing ltdc.o(i.LTDC_Read_Point), (56 bytes).
    Removing ltdc.o(i.LTDC_Select_Layer), (12 bytes).
    Removing led.o(.rev16_text), (4 bytes).
    Removing led.o(.revsh_text), (4 bytes).
    Removing led.o(.rrx_text), (6 bytes).
    Removing sdio_sdcard.o(.rev16_text), (4 bytes).
    Removing sdio_sdcard.o(.revsh_text), (4 bytes).
    Removing sdio_sdcard.o(.rrx_text), (6 bytes).
    Removing sdio_sdcard.o(i.SD_GetState), (26 bytes).
    Removing sdio_sdcard.o(i.SD_PowerOFF), (20 bytes).
    Removing sdio_sdcard.o(i.SD_SendStatus), (52 bytes).
    Removing sdram.o(.rev16_text), (4 bytes).
    Removing sdram.o(.revsh_text), (4 bytes).
    Removing sdram.o(.rrx_text), (6 bytes).
    Removing sdram.o(i.FMC_SDRAM_ReadBuffer), (22 bytes).
    Removing sdram.o(i.FMC_SDRAM_WriteBuffer), (24 bytes).
    Removing spi.o(.rev16_text), (4 bytes).
    Removing spi.o(.revsh_text), (4 bytes).
    Removing spi.o(.rrx_text), (6 bytes).
    Removing spi.o(i.SPI2_Init), (140 bytes).
    Removing spi.o(i.SPI2_ReadWriteByte), (32 bytes).
    Removing spi.o(i.SPI2_SetSpeed), (40 bytes).
    Removing timer.o(.rev16_text), (4 bytes).
    Removing timer.o(.revsh_text), (4 bytes).
    Removing timer.o(.rrx_text), (6 bytes).
    Removing timer.o(i.TIM3_Int_Init), (64 bytes).
    Removing timer.o(i.TIM3_PWM_Init), (140 bytes).
    Removing timer.o(i.TIM5_CH1_Cap_Init), (176 bytes).
    Removing timer.o(i.TIM9_CH2_PWM_Init), (120 bytes).
    Removing ctiic.o(.rev16_text), (4 bytes).
    Removing ctiic.o(.revsh_text), (4 bytes).
    Removing ctiic.o(.rrx_text), (6 bytes).
    Removing ctiic.o(i.CT_Delay), (6 bytes).
    Removing ft5206.o(.rev16_text), (4 bytes).
    Removing ft5206.o(.revsh_text), (4 bytes).
    Removing ft5206.o(.rrx_text), (6 bytes).
    Removing gt9147.o(.rev16_text), (4 bytes).
    Removing gt9147.o(.revsh_text), (4 bytes).
    Removing gt9147.o(.rrx_text), (6 bytes).
    Removing ott2001a.o(.rev16_text), (4 bytes).
    Removing ott2001a.o(.revsh_text), (4 bytes).
    Removing ott2001a.o(.rrx_text), (6 bytes).
    Removing touch.o(.rev16_text), (4 bytes).
    Removing touch.o(.revsh_text), (4 bytes).
    Removing touch.o(.rrx_text), (6 bytes).
    Removing touch.o(i.TP_Draw_Big_Point), (52 bytes).
    Removing w25qxx.o(.rev16_text), (4 bytes).
    Removing w25qxx.o(.revsh_text), (4 bytes).
    Removing w25qxx.o(.rrx_text), (6 bytes).
    Removing w25qxx.o(i.W25QXX_Erase_Chip), (44 bytes).
    Removing w25qxx.o(i.W25QXX_PowerDown), (40 bytes).
    Removing w25qxx.o(i.W25QXX_WAKEUP), (40 bytes).
    Removing w25qxx.o(i.W25QXX_Write_Disable), (32 bytes).
    Removing w25qxx.o(i.W25QXX_Write_SR), (60 bytes).
    Removing ftl.o(.rev16_text), (4 bytes).
    Removing ftl.o(.revsh_text), (4 bytes).
    Removing ftl.o(.rrx_text), (6 bytes).
    Removing ftl.o(i.FTL_SearchBadBlock), (172 bytes).
    Removing nand.o(.rev16_text), (4 bytes).
    Removing nand.o(.revsh_text), (4 bytes).
    Removing nand.o(.rrx_text), (6 bytes).
    Removing nand.o(i.NAND_EraseChip), (80 bytes).
    Removing nandtester.o(.rev16_text), (4 bytes).
    Removing nandtester.o(.revsh_text), (4 bytes).
    Removing nandtester.o(.rrx_text), (6 bytes).
    Removing nandtester.o(i.test_copypageandwrite), (72 bytes).
    Removing nandtester.o(i.test_ftlreadsectors), (120 bytes).
    Removing nandtester.o(i.test_ftlwritesectors), (62 bytes).
    Removing nandtester.o(i.test_readallblockinfo), (120 bytes).
    Removing nandtester.o(i.test_readpage), (128 bytes).
    Removing nandtester.o(i.test_readspare), (120 bytes).
    Removing nandtester.o(i.test_writepage), (64 bytes).
    Removing usart3.o(.rev16_text), (4 bytes).
    Removing usart3.o(.revsh_text), (4 bytes).
    Removing usart3.o(.rrx_text), (6 bytes).
    Removing malloc.o(.rev16_text), (4 bytes).
    Removing malloc.o(.revsh_text), (4 bytes).
    Removing malloc.o(.rrx_text), (6 bytes).
    Removing malloc.o(i.mymemcpy), (16 bytes).
    Removing malloc.o(i.myrealloc), (60 bytes).
    Removing exfuns.o(.rev16_text), (4 bytes).
    Removing exfuns.o(.revsh_text), (4 bytes).
    Removing exfuns.o(.rrx_text), (6 bytes).
    Removing exfuns.o(i.char_upper), (14 bytes).
    Removing exfuns.o(i.exf_copy), (350 bytes).
    Removing exfuns.o(i.exf_fdcopy), (440 bytes).
    Removing exfuns.o(i.exf_fdsize), (204 bytes).
    Removing exfuns.o(i.exf_get_src_dname), (40 bytes).
    Removing exfuns.o(i.exf_getfree), (46 bytes).
    Removing exfuns.o(i.f_typetell), (136 bytes).
    Removing exfuns.o(.bss), (288 bytes).
    Removing exfuns.o(.bss), (72 bytes).
    Removing exfuns.o(.constdata), (112 bytes).
    Removing exfuns.o(.conststring), (72 bytes).
    Removing exfuns.o(.data), (4 bytes).
    Removing exfuns.o(.data), (4 bytes).
    Removing fattester.o(.rev16_text), (4 bytes).
    Removing fattester.o(.revsh_text), (4 bytes).
    Removing fattester.o(.rrx_text), (6 bytes).
    Removing fattester.o(i.mf_close), (20 bytes).
    Removing fattester.o(i.mf_closedir), (12 bytes).
    Removing fattester.o(i.mf_fmkfs), (4 bytes).
    Removing fattester.o(i.mf_getlabel), (128 bytes).
    Removing fattester.o(i.mf_gets), (72 bytes).
    Removing fattester.o(i.mf_lseek), (16 bytes).
    Removing fattester.o(i.mf_mkdir), (4 bytes).
    Removing fattester.o(i.mf_mount), (20 bytes).
    Removing fattester.o(i.mf_open), (16 bytes).
    Removing fattester.o(i.mf_opendir), (12 bytes).
    Removing fattester.o(i.mf_putc), (20 bytes).
    Removing fattester.o(i.mf_puts), (20 bytes).
    Removing fattester.o(i.mf_read), (332 bytes).
    Removing fattester.o(i.mf_readdir), (424 bytes).
    Removing fattester.o(i.mf_rename), (4 bytes).
    Removing fattester.o(i.mf_scan_files), (92 bytes).
    Removing fattester.o(i.mf_setlabel), (84 bytes).
    Removing fattester.o(i.mf_showfree), (144 bytes).
    Removing fattester.o(i.mf_size), (12 bytes).
    Removing fattester.o(i.mf_tell), (12 bytes).
    Removing fattester.o(i.mf_unlink), (4 bytes).
    Removing fattester.o(i.mf_write), (180 bytes).
    Removing mycc936.o(.rev16_text), (4 bytes).
    Removing mycc936.o(.revsh_text), (4 bytes).
    Removing mycc936.o(.rrx_text), (6 bytes).
    Removing diskio.o(.rev16_text), (4 bytes).
    Removing diskio.o(.revsh_text), (4 bytes).
    Removing diskio.o(.rrx_text), (6 bytes).
    Removing ff.o(i.dir_remove), (94 bytes).
    Removing ff.o(i.f_closedir), (20 bytes).
    Removing ff.o(i.f_getfree), (278 bytes).
    Removing ff.o(i.f_getlabel), (242 bytes).
    Removing ff.o(i.f_gets), (68 bytes).
    Removing ff.o(i.f_lseek), (700 bytes).
    Removing ff.o(i.f_mkdir), (476 bytes).
    Removing ff.o(i.f_mkfs), (1220 bytes).
    Removing ff.o(i.f_opendir), (212 bytes).
    Removing ff.o(i.f_printf), (484 bytes).
    Removing ff.o(i.f_putc), (60 bytes).
    Removing ff.o(i.f_puts), (70 bytes).
    Removing ff.o(i.f_readdir), (118 bytes).
    Removing ff.o(i.f_rename), (398 bytes).
    Removing ff.o(i.f_setlabel), (464 bytes).
    Removing ff.o(i.f_stat), (98 bytes).
    Removing ff.o(i.f_truncate), (188 bytes).
    Removing ff.o(i.f_unlink), (266 bytes).
    Removing ff.o(i.f_write), (468 bytes).
    Removing ff.o(i.get_fileinfo), (262 bytes).
    Removing ff.o(i.get_xdir_info), (138 bytes).
    Removing ff.o(i.putc_bfd), (58 bytes).
    Removing fontupd.o(.rev16_text), (4 bytes).
    Removing fontupd.o(.revsh_text), (4 bytes).
    Removing fontupd.o(.rrx_text), (6 bytes).
    Removing text.o(.rev16_text), (4 bytes).
    Removing text.o(.revsh_text), (4 bytes).
    Removing text.o(.rrx_text), (6 bytes).
    Removing usmart.o(.rev16_text), (4 bytes).
    Removing usmart.o(.revsh_text), (4 bytes).
    Removing usmart.o(.rrx_text), (6 bytes).
    Removing usmart_config.o(.rev16_text), (4 bytes).
    Removing usmart_config.o(.revsh_text), (4 bytes).
    Removing usmart_config.o(.rrx_text), (6 bytes).
    Removing usmart_str.o(.rev16_text), (4 bytes).
    Removing usmart_str.o(.revsh_text), (4 bytes).
    Removing usmart_str.o(.rrx_text), (6 bytes).
    Removing apsta.o(.rev16_text), (4 bytes).
    Removing apsta.o(.revsh_text), (4 bytes).
    Removing apsta.o(.rrx_text), (6 bytes).
    Removing common.o(.rev16_text), (4 bytes).
    Removing common.o(.revsh_text), (4 bytes).
    Removing common.o(.rrx_text), (6 bytes).
    Removing common.o(i.atk_8266_apsta_check), (144 bytes).
    Removing wifiap.o(.rev16_text), (4 bytes).
    Removing wifiap.o(.revsh_text), (4 bytes).
    Removing wifiap.o(.rrx_text), (6 bytes).
    Removing wifista.o(.rev16_text), (4 bytes).
    Removing wifista.o(.revsh_text), (4 bytes).
    Removing wifista.o(.rrx_text), (6 bytes).

224 unused section(s) (total 14120 bytes) removed from the image.

==============================================================================

Image Symbol Table

    Local Symbols

    Symbol Name                              Value     Ov Type        Size  Object(Section)

    ../clib/angel/boardlib.s                 0x00000000   Number         0  boardinit3.o ABSOLUTE
    ../clib/angel/boardlib.s                 0x00000000   Number         0  boardinit1.o ABSOLUTE
    ../clib/angel/boardlib.s                 0x00000000   Number         0  boardinit2.o ABSOLUTE
    ../clib/angel/boardlib.s                 0x00000000   Number         0  boardshut.o ABSOLUTE
    ../clib/angel/dczerorl2.s                0x00000000   Number         0  __dczerorl2.o ABSOLUTE
    ../clib/angel/handlers.s                 0x00000000   Number         0  __scatter_zi.o ABSOLUTE
    ../clib/angel/kernel.s                   0x00000000   Number         0  rtexit2.o ABSOLUTE
    ../clib/angel/kernel.s                   0x00000000   Number         0  __rtentry.o ABSOLUTE
    ../clib/angel/kernel.s                   0x00000000   Number         0  __rtentry2.o ABSOLUTE
    ../clib/angel/kernel.s                   0x00000000   Number         0  __rtentry4.o ABSOLUTE
    ../clib/angel/kernel.s                   0x00000000   Number         0  rtexit.o ABSOLUTE
    ../clib/angel/rt.s                       0x00000000   Number         0  aeabi_ldiv0.o ABSOLUTE
    ../clib/angel/rt.s                       0x00000000   Number         0  rt_ctype_table.o ABSOLUTE
    ../clib/angel/rt.s                       0x00000000   Number         0  rt_div0.o ABSOLUTE
    ../clib/angel/rt.s                       0x00000000   Number         0  rt_errno_addr.o ABSOLUTE
    ../clib/angel/rt.s                       0x00000000   Number         0  rt_errno_addr_intlibspace.o ABSOLUTE
    ../clib/angel/rt.s                       0x00000000   Number         0  aeabi_ldiv0_sigfpe.o ABSOLUTE
    ../clib/angel/rt.s                       0x00000000   Number         0  rt_locale_intlibspace.o ABSOLUTE
    ../clib/angel/rt.s                       0x00000000   Number         0  rt_locale.o ABSOLUTE
    ../clib/angel/rt.s                       0x00000000   Number         0  rt_raise.o ABSOLUTE
    ../clib/angel/scatter.s                  0x00000000   Number         0  __scatter.o ABSOLUTE
    ../clib/angel/startup.s                  0x00000000   Number         0  __main.o ABSOLUTE
    ../clib/angel/sys.s                      0x00000000   Number         0  use_no_semi_2.o ABSOLUTE
    ../clib/angel/sys.s                      0x00000000   Number         0  use_no_semi.o ABSOLUTE
    ../clib/angel/sys.s                      0x00000000   Number         0  indicate_semi.o ABSOLUTE
    ../clib/angel/sys.s                      0x00000000   Number         0  sys_stackheap_outer.o ABSOLUTE
    ../clib/angel/sys.s                      0x00000000   Number         0  libspace.o ABSOLUTE
    ../clib/angel/sysapp.c                   0x00000000   Number         0  sys_command.o ABSOLUTE
    ../clib/armsys.c                         0x00000000   Number         0  argv_veneer.o ABSOLUTE
    ../clib/armsys.c                         0x00000000   Number         0  no_argv.o ABSOLUTE
    ../clib/armsys.c                         0x00000000   Number         0  _get_argv_nomalloc.o ABSOLUTE
    ../clib/armsys.c                         0x00000000   Number         0  argv_veneer.o ABSOLUTE
    ../clib/bigflt.c                         0x00000000   Number         0  bigflt0.o ABSOLUTE
    ../clib/btod.s                           0x00000000   Number         0  btod.o ABSOLUTE
    ../clib/fenv.c                           0x00000000   Number         0  _rserrno.o ABSOLUTE
    ../clib/heapalloc.c                      0x00000000   Number         0  hrguard.o ABSOLUTE
    ../clib/heapaux.c                        0x00000000   Number         0  heapauxi.o ABSOLUTE
    ../clib/libinit.s                        0x00000000   Number         0  libinit.o ABSOLUTE
    ../clib/libinit.s                        0x00000000   Number         0  libshutdown2.o ABSOLUTE
    ../clib/libinit.s                        0x00000000   Number         0  libinit2.o ABSOLUTE
    ../clib/libinit.s                        0x00000000   Number         0  libshutdown.o ABSOLUTE
    ../clib/locale.c                         0x00000000   Number         0  _wcrtomb.o ABSOLUTE
    ../clib/locale.s                         0x00000000   Number         0  lc_ctype_c.o ABSOLUTE
    ../clib/locale.s                         0x00000000   Number         0  lc_numeric_c.o ABSOLUTE
    ../clib/longlong.s                       0x00000000   Number         0  lludiv10.o ABSOLUTE
    ../clib/longlong.s                       0x00000000   Number         0  lludivv7m.o ABSOLUTE
    ../clib/longlong.s                       0x00000000   Number         0  llsdiv.o ABSOLUTE
    ../clib/memcpset.s                       0x00000000   Number         0  strcmpv7m.o ABSOLUTE
    ../clib/memcpset.s                       0x00000000   Number         0  rt_memcpy_v6.o ABSOLUTE
    ../clib/memcpset.s                       0x00000000   Number         0  rt_memclr.o ABSOLUTE
    ../clib/memcpset.s                       0x00000000   Number         0  rt_memclr_w.o ABSOLUTE
    ../clib/memcpset.s                       0x00000000   Number         0  rt_memcpy_w.o ABSOLUTE
    ../clib/misc.s                           0x00000000   Number         0  printf_stubs.o ABSOLUTE
    ../clib/printf.c                         0x00000000   Number         0  __printf_ss.o ABSOLUTE
    ../clib/printf.c                         0x00000000   Number         0  __printf_wp.o ABSOLUTE
    ../clib/printf.c                         0x00000000   Number         0  __printf_flags_wp.o ABSOLUTE
    ../clib/printf.c                         0x00000000   Number         0  __printf_ss_wp.o ABSOLUTE
    ../clib/printf.c                         0x00000000   Number         0  __printf_flags_ss_wp.o ABSOLUTE
    ../clib/printf.c                         0x00000000   Number         0  __printf_flags_ss.o ABSOLUTE
    ../clib/printf.c                         0x00000000   Number         0  _printf_fp_infnan.o ABSOLUTE
    ../clib/printf.c                         0x00000000   Number         0  _printf_wchar.o ABSOLUTE
    ../clib/printf.c                         0x00000000   Number         0  __printf_nopercent.o ABSOLUTE
    ../clib/printf.c                         0x00000000   Number         0  vsprintf.o ABSOLUTE
    ../clib/printf.c                         0x00000000   Number         0  _printf_fp_hex.o ABSOLUTE
    ../clib/printf.c                         0x00000000   Number         0  _printf_fp_dec.o ABSOLUTE
    ../clib/printf.c                         0x00000000   Number         0  __2printf.o ABSOLUTE
    ../clib/printf.c                         0x00000000   Number         0  __2sprintf.o ABSOLUTE
    ../clib/printf.c                         0x00000000   Number         0  noretval__2printf.o ABSOLUTE
    ../clib/printf.c                         0x00000000   Number         0  noretval__2sprintf.o ABSOLUTE
    ../clib/printf.c                         0x00000000   Number         0  __printf.o ABSOLUTE
    ../clib/printf.c                         0x00000000   Number         0  _printf_pad.o ABSOLUTE
    ../clib/printf.c                         0x00000000   Number         0  _printf_str.o ABSOLUTE
    ../clib/printf.c                         0x00000000   Number         0  _printf_truncate.o ABSOLUTE
    ../clib/printf.c                         0x00000000   Number         0  _printf_intcommon.o ABSOLUTE
    ../clib/printf.c                         0x00000000   Number         0  _printf_charcount.o ABSOLUTE
    ../clib/printf.c                         0x00000000   Number         0  _printf_char_common.o ABSOLUTE
    ../clib/printf.c                         0x00000000   Number         0  _sputc.o ABSOLUTE
    ../clib/printf.c                         0x00000000   Number         0  _printf_char.o ABSOLUTE
    ../clib/printf.c                         0x00000000   Number         0  _printf_char_file.o ABSOLUTE
    ../clib/printf.c                         0x00000000   Number         0  _printf_wctomb.o ABSOLUTE
    ../clib/printf.c                         0x00000000   Number         0  _printf_oct_ll.o ABSOLUTE
    ../clib/printf.c                         0x00000000   Number         0  _printf_dec.o ABSOLUTE
    ../clib/printf.c                         0x00000000   Number         0  _printf_longlong_dec.o ABSOLUTE
    ../clib/printf.c                         0x00000000   Number         0  _printf_oct_int_ll.o ABSOLUTE
    ../clib/printf.c                         0x00000000   Number         0  _printf_hex_ll.o ABSOLUTE
    ../clib/printf.c                         0x00000000   Number         0  _printf_hex_int.o ABSOLUTE
    ../clib/printf.c                         0x00000000   Number         0  _printf_hex_int_ll.o ABSOLUTE
    ../clib/printf.c                         0x00000000   Number         0  _printf_hex_ptr.o ABSOLUTE
    ../clib/printf.c                         0x00000000   Number         0  _printf_hex_int_ptr.o ABSOLUTE
    ../clib/printf.c                         0x00000000   Number         0  _printf_hex_ll_ptr.o ABSOLUTE
    ../clib/printf.c                         0x00000000   Number         0  _printf_hex_int_ll_ptr.o ABSOLUTE
    ../clib/printf.c                         0x00000000   Number         0  __printf_flags.o ABSOLUTE
    ../clib/printf.c                         0x00000000   Number         0  _printf_oct_int.o ABSOLUTE
    ../clib/printf_percent.s                 0x00000000   Number         0  _printf_o.o ABSOLUTE
    ../clib/printf_percent.s                 0x00000000   Number         0  _printf_lli.o ABSOLUTE
    ../clib/printf_percent.s                 0x00000000   Number         0  _printf_ll.o ABSOLUTE
    ../clib/printf_percent.s                 0x00000000   Number         0  _printf_l.o ABSOLUTE
    ../clib/printf_percent.s                 0x00000000   Number         0  _printf_lc.o ABSOLUTE
    ../clib/printf_percent.s                 0x00000000   Number         0  _printf_ls.o ABSOLUTE
    ../clib/printf_percent.s                 0x00000000   Number         0  _printf_p.o ABSOLUTE
    ../clib/printf_percent.s                 0x00000000   Number         0  _printf_u.o ABSOLUTE
    ../clib/printf_percent.s                 0x00000000   Number         0  _printf_s.o ABSOLUTE
    ../clib/printf_percent.s                 0x00000000   Number         0  _printf_llu.o ABSOLUTE
    ../clib/printf_percent.s                 0x00000000   Number         0  _printf_n.o ABSOLUTE
    ../clib/printf_percent.s                 0x00000000   Number         0  _printf_d.o ABSOLUTE
    ../clib/printf_percent.s                 0x00000000   Number         0  _printf_llx.o ABSOLUTE
    ../clib/printf_percent.s                 0x00000000   Number         0  _printf_i.o ABSOLUTE
    ../clib/printf_percent.s                 0x00000000   Number         0  _printf_percent.o ABSOLUTE
    ../clib/printf_percent.s                 0x00000000   Number         0  _printf_llo.o ABSOLUTE
    ../clib/printf_percent.s                 0x00000000   Number         0  _printf_lld.o ABSOLUTE
    ../clib/printf_percent.s                 0x00000000   Number         0  _printf_f.o ABSOLUTE
    ../clib/printf_percent.s                 0x00000000   Number         0  _printf_c.o ABSOLUTE
    ../clib/printf_percent.s                 0x00000000   Number         0  _printf_e.o ABSOLUTE
    ../clib/printf_percent.s                 0x00000000   Number         0  _printf_g.o ABSOLUTE
    ../clib/printf_percent.s                 0x00000000   Number         0  _printf_a.o ABSOLUTE
    ../clib/printf_percent.s                 0x00000000   Number         0  _printf_percent_end.o ABSOLUTE
    ../clib/printf_percent.s                 0x00000000   Number         0  _printf_x.o ABSOLUTE
    ../clib/signal.c                         0x00000000   Number         0  defsig_general.o ABSOLUTE
    ../clib/signal.c                         0x00000000   Number         0  __raise.o ABSOLUTE
    ../clib/signal.c                         0x00000000   Number         0  defsig_fpe_inner.o ABSOLUTE
    ../clib/signal.c                         0x00000000   Number         0  defsig_exit.o ABSOLUTE
    ../clib/signal.c                         0x00000000   Number         0  defsig_fpe_formal.o ABSOLUTE
    ../clib/signal.c                         0x00000000   Number         0  defsig_fpe_outer.o ABSOLUTE
    ../clib/signal.c                         0x00000000   Number         0  defsig_segv_inner.o ABSOLUTE
    ../clib/signal.c                         0x00000000   Number         0  defsig_cppl_inner.o ABSOLUTE
    ../clib/signal.c                         0x00000000   Number         0  defsig_pvfn_inner.o ABSOLUTE
    ../clib/signal.c                         0x00000000   Number         0  defsig_stak_inner.o ABSOLUTE
    ../clib/signal.c                         0x00000000   Number         0  defsig_rtmem_formal.o ABSOLUTE
    ../clib/signal.c                         0x00000000   Number         0  defsig_rtmem_outer.o ABSOLUTE
    ../clib/signal.c                         0x00000000   Number         0  defsig_rtmem_inner.o ABSOLUTE
    ../clib/signal.c                         0x00000000   Number         0  defsig_rtred_inner.o ABSOLUTE
    ../clib/signal.c                         0x00000000   Number         0  defsig_abrt_inner.o ABSOLUTE
    ../clib/signal.c                         0x00000000   Number         0  defsig_other.o ABSOLUTE
    ../clib/signal.s                         0x00000000   Number         0  defsig.o ABSOLUTE
    ../clib/stdio.c                          0x00000000   Number         0  ferror_locked.o ABSOLUTE
    ../clib/stdio.c                          0x00000000   Number         0  ferror.o ABSOLUTE
    ../clib/stdlib.c                         0x00000000   Number         0  exit.o ABSOLUTE
    ../clib/string.c                         0x00000000   Number         0  strstr.o ABSOLUTE
    ../clib/string.c                         0x00000000   Number         0  strcpy.o ABSOLUTE
    ../clib/string.c                         0x00000000   Number         0  strlen.o ABSOLUTE
    ../clib/string.c                         0x00000000   Number         0  strcat.o ABSOLUTE
    ../fplib/daddsub.s                       0x00000000   Number         0  daddsub_clz.o ABSOLUTE
    ../fplib/dcmpi.s                         0x00000000   Number         0  dcmpi.o ABSOLUTE
    ../fplib/dfixu.s                         0x00000000   Number         0  dfixu.o ABSOLUTE
    ../fplib/dflt.s                          0x00000000   Number         0  dflt_clz.o ABSOLUTE
    ../fplib/dleqf.s                         0x00000000   Number         0  dleqf.o ABSOLUTE
    ../fplib/dmul.s                          0x00000000   Number         0  dmul.o ABSOLUTE
    ../fplib/dnaninf.s                       0x00000000   Number         0  dnaninf.o ABSOLUTE
    ../fplib/dretinf.s                       0x00000000   Number         0  dretinf.o ABSOLUTE
    ../fplib/drleqf.s                        0x00000000   Number         0  drleqf.o ABSOLUTE
    ../fplib/dsqrt.s                         0x00000000   Number         0  dsqrt_umaal.o ABSOLUTE
    ../fplib/f2d.s                           0x00000000   Number         0  f2d.o ABSOLUTE
    ../fplib/fnaninf.s                       0x00000000   Number         0  fnaninf.o ABSOLUTE
    ../fplib/fpinit.s                        0x00000000   Number         0  fpinit.o ABSOLUTE
    ../fplib/istatus.s                       0x00000000   Number         0  istatus.o ABSOLUTE
    ../fplib/printf1.s                       0x00000000   Number         0  printf1.o ABSOLUTE
    ../fplib/printf2.s                       0x00000000   Number         0  printf2.o ABSOLUTE
    ../fplib/printf2a.s                      0x00000000   Number         0  printf2a.o ABSOLUTE
    ../fplib/printf2b.s                      0x00000000   Number         0  printf2b.o ABSOLUTE
    ../fplib/usenofp.s                       0x00000000   Number         0  usenofp.o ABSOLUTE
    ../mathlib/fpclassify.c                  0x00000000   Number         0  fpclassify.o ABSOLUTE
    ../mathlib/sqrt.c                        0x00000000   Number         0  sqrt.o ABSOLUTE
    ../mathlib/sqrt.c                        0x00000000   Number         0  sqrt_x.o ABSOLUTE
    ..\ATK_ESP8266\apsta.c                   0x00000000   Number         0  apsta.o ABSOLUTE
    ..\ATK_ESP8266\common.c                  0x00000000   Number         0  common.o ABSOLUTE
    ..\ATK_ESP8266\wifiap.c                  0x00000000   Number         0  wifiap.o ABSOLUTE
    ..\ATK_ESP8266\wifista.c                 0x00000000   Number         0  wifista.o ABSOLUTE
    ..\FATFS\exfuns\exfuns.c                 0x00000000   Number         0  exfuns.o ABSOLUTE
    ..\FATFS\exfuns\fattester.c              0x00000000   Number         0  fattester.o ABSOLUTE
    ..\FATFS\exfuns\mycc936.c                0x00000000   Number         0  mycc936.o ABSOLUTE
    ..\FATFS\src\diskio.c                    0x00000000   Number         0  diskio.o ABSOLUTE
    ..\FATFS\src\ff.c                        0x00000000   Number         0  ff.o ABSOLUTE
    ..\HARDWARE\24CXX\24cxx.c                0x00000000   Number         0  24cxx.o ABSOLUTE
    ..\HARDWARE\24CXX\myiic.c                0x00000000   Number         0  myiic.o ABSOLUTE
    ..\HARDWARE\KEY\key.c                    0x00000000   Number         0  key.o ABSOLUTE
    ..\HARDWARE\LCD\lcd.c                    0x00000000   Number         0  lcd.o ABSOLUTE
    ..\HARDWARE\LCD\ltdc.c                   0x00000000   Number         0  ltdc.o ABSOLUTE
    ..\HARDWARE\LED\led.c                    0x00000000   Number         0  led.o ABSOLUTE
    ..\HARDWARE\NAND\ftl.c                   0x00000000   Number         0  ftl.o ABSOLUTE
    ..\HARDWARE\NAND\nand.c                  0x00000000   Number         0  nand.o ABSOLUTE
    ..\HARDWARE\NAND\nandtester.c            0x00000000   Number         0  nandtester.o ABSOLUTE
    ..\HARDWARE\SDIO\sdio_sdcard.c           0x00000000   Number         0  sdio_sdcard.o ABSOLUTE
    ..\HARDWARE\SDRAM\sdram.c                0x00000000   Number         0  sdram.o ABSOLUTE
    ..\HARDWARE\SPI\spi.c                    0x00000000   Number         0  spi.o ABSOLUTE
    ..\HARDWARE\TIMER\timer.c                0x00000000   Number         0  timer.o ABSOLUTE
    ..\HARDWARE\TOUCH\ctiic.c                0x00000000   Number         0  ctiic.o ABSOLUTE
    ..\HARDWARE\TOUCH\ft5206.c               0x00000000   Number         0  ft5206.o ABSOLUTE
    ..\HARDWARE\TOUCH\gt9147.c               0x00000000   Number         0  gt9147.o ABSOLUTE
    ..\HARDWARE\TOUCH\ott2001a.c             0x00000000   Number         0  ott2001a.o ABSOLUTE
    ..\HARDWARE\TOUCH\touch.c                0x00000000   Number         0  touch.o ABSOLUTE
    ..\HARDWARE\USART3\usart3.c              0x00000000   Number         0  usart3.o ABSOLUTE
    ..\HARDWARE\W25QXX\w25qxx.c              0x00000000   Number         0  w25qxx.o ABSOLUTE
    ..\MALLOC\malloc.c                       0x00000000   Number         0  malloc.o ABSOLUTE
    ..\SYSTEM\delay\delay.c                  0x00000000   Number         0  delay.o ABSOLUTE
    ..\SYSTEM\sys\sys.c                      0x00000000   Number         0  sys.o ABSOLUTE
    ..\SYSTEM\usart\usart.c                  0x00000000   Number         0  usart.o ABSOLUTE
    ..\TEXT\fontupd.c                        0x00000000   Number         0  fontupd.o ABSOLUTE
    ..\TEXT\text.c                           0x00000000   Number         0  text.o ABSOLUTE
    ..\USMART\usmart.c                       0x00000000   Number         0  usmart.o ABSOLUTE
    ..\USMART\usmart_config.c                0x00000000   Number         0  usmart_config.o ABSOLUTE
    ..\USMART\usmart_str.c                   0x00000000   Number         0  usmart_str.o ABSOLUTE
    ..\\ATK_ESP8266\\apsta.c                 0x00000000   Number         0  apsta.o ABSOLUTE
    ..\\ATK_ESP8266\\common.c                0x00000000   Number         0  common.o ABSOLUTE
    ..\\ATK_ESP8266\\wifiap.c                0x00000000   Number         0  wifiap.o ABSOLUTE
    ..\\ATK_ESP8266\\wifista.c               0x00000000   Number         0  wifista.o ABSOLUTE
    ..\\FATFS\\exfuns\\exfuns.c              0x00000000   Number         0  exfuns.o ABSOLUTE
    ..\\FATFS\\exfuns\\fattester.c           0x00000000   Number         0  fattester.o ABSOLUTE
    ..\\FATFS\\exfuns\\mycc936.c             0x00000000   Number         0  mycc936.o ABSOLUTE
    ..\\FATFS\\src\\diskio.c                 0x00000000   Number         0  diskio.o ABSOLUTE
    ..\\HARDWARE\\24CXX\\24cxx.c             0x00000000   Number         0  24cxx.o ABSOLUTE
    ..\\HARDWARE\\24CXX\\myiic.c             0x00000000   Number         0  myiic.o ABSOLUTE
    ..\\HARDWARE\\KEY\\key.c                 0x00000000   Number         0  key.o ABSOLUTE
    ..\\HARDWARE\\LCD\\lcd.c                 0x00000000   Number         0  lcd.o ABSOLUTE
    ..\\HARDWARE\\LCD\\ltdc.c                0x00000000   Number         0  ltdc.o ABSOLUTE
    ..\\HARDWARE\\LED\\led.c                 0x00000000   Number         0  led.o ABSOLUTE
    ..\\HARDWARE\\NAND\\ftl.c                0x00000000   Number         0  ftl.o ABSOLUTE
    ..\\HARDWARE\\NAND\\nand.c               0x00000000   Number         0  nand.o ABSOLUTE
    ..\\HARDWARE\\NAND\\nandtester.c         0x00000000   Number         0  nandtester.o ABSOLUTE
    ..\\HARDWARE\\SDIO\\sdio_sdcard.c        0x00000000   Number         0  sdio_sdcard.o ABSOLUTE
    ..\\HARDWARE\\SDRAM\\sdram.c             0x00000000   Number         0  sdram.o ABSOLUTE
    ..\\HARDWARE\\SPI\\spi.c                 0x00000000   Number         0  spi.o ABSOLUTE
    ..\\HARDWARE\\TIMER\\timer.c             0x00000000   Number         0  timer.o ABSOLUTE
    ..\\HARDWARE\\TOUCH\\ctiic.c             0x00000000   Number         0  ctiic.o ABSOLUTE
    ..\\HARDWARE\\TOUCH\\ft5206.c            0x00000000   Number         0  ft5206.o ABSOLUTE
    ..\\HARDWARE\\TOUCH\\gt9147.c            0x00000000   Number         0  gt9147.o ABSOLUTE
    ..\\HARDWARE\\TOUCH\\ott2001a.c          0x00000000   Number         0  ott2001a.o ABSOLUTE
    ..\\HARDWARE\\TOUCH\\touch.c             0x00000000   Number         0  touch.o ABSOLUTE
    ..\\HARDWARE\\USART3\\usart3.c           0x00000000   Number         0  usart3.o ABSOLUTE
    ..\\HARDWARE\\W25QXX\\w25qxx.c           0x00000000   Number         0  w25qxx.o ABSOLUTE
    ..\\MALLOC\\malloc.c                     0x00000000   Number         0  malloc.o ABSOLUTE
    ..\\SYSTEM\\delay\\delay.c               0x00000000   Number         0  delay.o ABSOLUTE
    ..\\SYSTEM\\sys\\sys.c                   0x00000000   Number         0  sys.o ABSOLUTE
    ..\\SYSTEM\\usart\\usart.c               0x00000000   Number         0  usart.o ABSOLUTE
    ..\\TEXT\\fontupd.c                      0x00000000   Number         0  fontupd.o ABSOLUTE
    ..\\TEXT\\text.c                         0x00000000   Number         0  text.o ABSOLUTE
    ..\\USMART\\usmart.c                     0x00000000   Number         0  usmart.o ABSOLUTE
    ..\\USMART\\usmart_config.c              0x00000000   Number         0  usmart_config.o ABSOLUTE
    ..\\USMART\\usmart_str.c                 0x00000000   Number         0  usmart_str.o ABSOLUTE
    dc.s                                     0x00000000   Number         0  dc.o ABSOLUTE
    startup_stm32f429xx.s                    0x00000000   Number         0  startup_stm32f429xx.o ABSOLUTE
    test.c                                   0x00000000   Number         0  test.o ABSOLUTE
    test.c                                   0x00000000   Number         0  test.o ABSOLUTE
    RESET                                    0x08000000   Section      428  startup_stm32f429xx.o(RESET)
    !!!main                                  0x080001ac   Section        8  __main.o(!!!main)
    !!!scatter                               0x080001b4   Section       52  __scatter.o(!!!scatter)
    !!dczerorl2                              0x080001e8   Section       90  __dczerorl2.o(!!dczerorl2)
    !!handler_zi                             0x08000244   Section       28  __scatter_zi.o(!!handler_zi)
    .ARM.Collect$$_printf_percent$$00000000  0x08000260   Section        0  _printf_percent.o(.ARM.Collect$$_printf_percent$$00000000)
    .ARM.Collect$$_printf_percent$$00000001  0x08000260   Section        6  _printf_n.o(.ARM.Collect$$_printf_percent$$00000001)
    .ARM.Collect$$_printf_percent$$00000002  0x08000266   Section        6  _printf_p.o(.ARM.Collect$$_printf_percent$$00000002)
    .ARM.Collect$$_printf_percent$$00000003  0x0800026c   Section        6  _printf_f.o(.ARM.Collect$$_printf_percent$$00000003)
    .ARM.Collect$$_printf_percent$$00000004  0x08000272   Section        6  _printf_e.o(.ARM.Collect$$_printf_percent$$00000004)
    .ARM.Collect$$_printf_percent$$00000005  0x08000278   Section        6  _printf_g.o(.ARM.Collect$$_printf_percent$$00000005)
    .ARM.Collect$$_printf_percent$$00000006  0x0800027e   Section        6  _printf_a.o(.ARM.Collect$$_printf_percent$$00000006)
    .ARM.Collect$$_printf_percent$$00000007  0x08000284   Section       10  _printf_ll.o(.ARM.Collect$$_printf_percent$$00000007)
    .ARM.Collect$$_printf_percent$$00000008  0x0800028e   Section        6  _printf_i.o(.ARM.Collect$$_printf_percent$$00000008)
    .ARM.Collect$$_printf_percent$$00000009  0x08000294   Section        6  _printf_d.o(.ARM.Collect$$_printf_percent$$00000009)
    .ARM.Collect$$_printf_percent$$0000000A  0x0800029a   Section        6  _printf_u.o(.ARM.Collect$$_printf_percent$$0000000A)
    .ARM.Collect$$_printf_percent$$0000000B  0x080002a0   Section        6  _printf_o.o(.ARM.Collect$$_printf_percent$$0000000B)
    .ARM.Collect$$_printf_percent$$0000000C  0x080002a6   Section        6  _printf_x.o(.ARM.Collect$$_printf_percent$$0000000C)
    .ARM.Collect$$_printf_percent$$0000000D  0x080002ac   Section        6  _printf_lli.o(.ARM.Collect$$_printf_percent$$0000000D)
    .ARM.Collect$$_printf_percent$$0000000E  0x080002b2   Section        6  _printf_lld.o(.ARM.Collect$$_printf_percent$$0000000E)
    .ARM.Collect$$_printf_percent$$0000000F  0x080002b8   Section        6  _printf_llu.o(.ARM.Collect$$_printf_percent$$0000000F)
    .ARM.Collect$$_printf_percent$$00000010  0x080002be   Section        6  _printf_llo.o(.ARM.Collect$$_printf_percent$$00000010)
    .ARM.Collect$$_printf_percent$$00000011  0x080002c4   Section        6  _printf_llx.o(.ARM.Collect$$_printf_percent$$00000011)
    .ARM.Collect$$_printf_percent$$00000012  0x080002ca   Section       10  _printf_l.o(.ARM.Collect$$_printf_percent$$00000012)
    .ARM.Collect$$_printf_percent$$00000013  0x080002d4   Section        6  _printf_c.o(.ARM.Collect$$_printf_percent$$00000013)
    .ARM.Collect$$_printf_percent$$00000014  0x080002da   Section        6  _printf_s.o(.ARM.Collect$$_printf_percent$$00000014)
    .ARM.Collect$$_printf_percent$$00000015  0x080002e0   Section        6  _printf_lc.o(.ARM.Collect$$_printf_percent$$00000015)
    .ARM.Collect$$_printf_percent$$00000016  0x080002e6   Section        6  _printf_ls.o(.ARM.Collect$$_printf_percent$$00000016)
    .ARM.Collect$$_printf_percent$$00000017  0x080002ec   Section        4  _printf_percent_end.o(.ARM.Collect$$_printf_percent$$00000017)
    .ARM.Collect$$libinit$$00000000          0x080002f0   Section        2  libinit.o(.ARM.Collect$$libinit$$00000000)
    .ARM.Collect$$libinit$$00000001          0x080002f2   Section        4  libinit2.o(.ARM.Collect$$libinit$$00000001)
    .ARM.Collect$$libinit$$00000004          0x080002f6   Section        0  libinit2.o(.ARM.Collect$$libinit$$00000004)
    .ARM.Collect$$libinit$$0000000A          0x080002f6   Section        0  libinit2.o(.ARM.Collect$$libinit$$0000000A)
    .ARM.Collect$$libinit$$0000000C          0x080002f6   Section        0  libinit2.o(.ARM.Collect$$libinit$$0000000C)
    .ARM.Collect$$libinit$$0000000E          0x080002f6   Section        0  libinit2.o(.ARM.Collect$$libinit$$0000000E)
    .ARM.Collect$$libinit$$0000000F          0x080002f6   Section        6  libinit2.o(.ARM.Collect$$libinit$$0000000F)
    .ARM.Collect$$libinit$$00000011          0x080002fc   Section        0  libinit2.o(.ARM.Collect$$libinit$$00000011)
    .ARM.Collect$$libinit$$00000012          0x080002fc   Section       12  libinit2.o(.ARM.Collect$$libinit$$00000012)
    .ARM.Collect$$libinit$$00000013          0x08000308   Section        0  libinit2.o(.ARM.Collect$$libinit$$00000013)
    .ARM.Collect$$libinit$$00000015          0x08000308   Section        0  libinit2.o(.ARM.Collect$$libinit$$00000015)
    .ARM.Collect$$libinit$$00000016          0x08000308   Section       10  libinit2.o(.ARM.Collect$$libinit$$00000016)
    .ARM.Collect$$libinit$$00000017          0x08000312   Section        0  libinit2.o(.ARM.Collect$$libinit$$00000017)
    .ARM.Collect$$libinit$$00000019          0x08000312   Section        0  libinit2.o(.ARM.Collect$$libinit$$00000019)
    .ARM.Collect$$libinit$$0000001B          0x08000312   Section        0  libinit2.o(.ARM.Collect$$libinit$$0000001B)
    .ARM.Collect$$libinit$$0000001D          0x08000312   Section        0  libinit2.o(.ARM.Collect$$libinit$$0000001D)
    .ARM.Collect$$libinit$$0000001F          0x08000312   Section        0  libinit2.o(.ARM.Collect$$libinit$$0000001F)
    .ARM.Collect$$libinit$$00000021          0x08000312   Section        0  libinit2.o(.ARM.Collect$$libinit$$00000021)
    .ARM.Collect$$libinit$$00000023          0x08000312   Section        0  libinit2.o(.ARM.Collect$$libinit$$00000023)
    .ARM.Collect$$libinit$$00000025          0x08000312   Section        0  libinit2.o(.ARM.Collect$$libinit$$00000025)
    .ARM.Collect$$libinit$$0000002C          0x08000312   Section        0  libinit2.o(.ARM.Collect$$libinit$$0000002C)
    .ARM.Collect$$libinit$$0000002E          0x08000312   Section        0  libinit2.o(.ARM.Collect$$libinit$$0000002E)
    .ARM.Collect$$libinit$$00000030          0x08000312   Section        0  libinit2.o(.ARM.Collect$$libinit$$00000030)
    .ARM.Collect$$libinit$$00000032          0x08000312   Section        0  libinit2.o(.ARM.Collect$$libinit$$00000032)
    .ARM.Collect$$libinit$$00000033          0x08000312   Section        2  libinit2.o(.ARM.Collect$$libinit$$00000033)
    .ARM.Collect$$libshutdown$$00000000      0x08000314   Section        2  libshutdown.o(.ARM.Collect$$libshutdown$$00000000)
    .ARM.Collect$$libshutdown$$00000002      0x08000316   Section        0  libshutdown2.o(.ARM.Collect$$libshutdown$$00000002)
    .ARM.Collect$$libshutdown$$00000004      0x08000316   Section        0  libshutdown2.o(.ARM.Collect$$libshutdown$$00000004)
    .ARM.Collect$$libshutdown$$00000007      0x08000316   Section        0  libshutdown2.o(.ARM.Collect$$libshutdown$$00000007)
    .ARM.Collect$$libshutdown$$0000000A      0x08000316   Section        0  libshutdown2.o(.ARM.Collect$$libshutdown$$0000000A)
    .ARM.Collect$$libshutdown$$0000000C      0x08000316   Section        0  libshutdown2.o(.ARM.Collect$$libshutdown$$0000000C)
    .ARM.Collect$$libshutdown$$0000000F      0x08000316   Section        0  libshutdown2.o(.ARM.Collect$$libshutdown$$0000000F)
    .ARM.Collect$$libshutdown$$00000010      0x08000316   Section        2  libshutdown2.o(.ARM.Collect$$libshutdown$$00000010)
    .ARM.Collect$$rtentry$$00000000          0x08000318   Section        0  __rtentry.o(.ARM.Collect$$rtentry$$00000000)
    .ARM.Collect$$rtentry$$00000002          0x08000318   Section        0  __rtentry2.o(.ARM.Collect$$rtentry$$00000002)
    .ARM.Collect$$rtentry$$00000004          0x08000318   Section        6  __rtentry4.o(.ARM.Collect$$rtentry$$00000004)
    .ARM.Collect$$rtentry$$00000009          0x0800031e   Section        0  __rtentry2.o(.ARM.Collect$$rtentry$$00000009)
    .ARM.Collect$$rtentry$$0000000A          0x0800031e   Section        4  __rtentry2.o(.ARM.Collect$$rtentry$$0000000A)
    .ARM.Collect$$rtentry$$0000000C          0x08000322   Section        0  __rtentry2.o(.ARM.Collect$$rtentry$$0000000C)
    .ARM.Collect$$rtentry$$0000000D          0x08000322   Section        8  __rtentry2.o(.ARM.Collect$$rtentry$$0000000D)
    .ARM.Collect$$rtexit$$00000000           0x0800032a   Section        2  rtexit.o(.ARM.Collect$$rtexit$$00000000)
    .ARM.Collect$$rtexit$$00000002           0x0800032c   Section        0  rtexit2.o(.ARM.Collect$$rtexit$$00000002)
    .ARM.Collect$$rtexit$$00000003           0x0800032c   Section        4  rtexit2.o(.ARM.Collect$$rtexit$$00000003)
    .ARM.Collect$$rtexit$$00000004           0x08000330   Section        6  rtexit2.o(.ARM.Collect$$rtexit$$00000004)
    .text                                    0x08000338   Section       68  startup_stm32f429xx.o(.text)
    $v0                                      0x08000338   Number         0  startup_stm32f429xx.o(.text)
    .text                                    0x0800037c   Section        2  use_no_semi_2.o(.text)
    .text                                    0x0800037e   Section      238  lludivv7m.o(.text)
    .text                                    0x0800046c   Section       72  llsdiv.o(.text)
    .text                                    0x080004b4   Section        0  vsprintf.o(.text)
    .text                                    0x080004d8   Section        0  __2printf.o(.text)
    .text                                    0x080004f0   Section        0  __2sprintf.o(.text)
    .text                                    0x0800051c   Section        0  _printf_pad.o(.text)
    .text                                    0x0800056a   Section        0  _printf_str.o(.text)
    .text                                    0x080005bc   Section        0  _printf_dec.o(.text)
    .text                                    0x08000634   Section        0  _printf_longlong_dec.o(.text)
    .text                                    0x080006b0   Section        0  _printf_hex_int_ll_ptr.o(.text)
    _printf_hex_common                       0x080006b1   Thumb Code     0  _printf_hex_int_ll_ptr.o(.text)
    .text                                    0x08000744   Section        0  __printf_flags_ss_wp.o(.text)
    .text                                    0x080008cc   Section        0  strstr.o(.text)
    .text                                    0x080008f0   Section        0  strcpy.o(.text)
    .text                                    0x08000938   Section        0  strlen.o(.text)
    .text                                    0x08000976   Section        0  strcat.o(.text)
    .text                                    0x0800098e   Section      138  rt_memcpy_v6.o(.text)
    .text                                    0x08000a18   Section       68  rt_memclr.o(.text)
    .text                                    0x08000a5c   Section      128  strcmpv7m.o(.text)
    .text                                    0x08000adc   Section        0  heapauxi.o(.text)
    .text                                    0x08000ae2   Section        2  use_no_semi.o(.text)
    .text                                    0x08000ae4   Section      138  lludiv10.o(.text)
    .text                                    0x08000b6e   Section        0  _rserrno.o(.text)
    .text                                    0x08000b84   Section        0  _printf_truncate.o(.text)
    .text                                    0x08000ba8   Section        0  _printf_intcommon.o(.text)
    .text                                    0x08000c5a   Section        0  _printf_charcount.o(.text)
    .text                                    0x08000c84   Section        0  _printf_char_common.o(.text)
    _printf_input_char                       0x08000c85   Thumb Code    10  _printf_char_common.o(.text)
    .text                                    0x08000cb4   Section        0  _sputc.o(.text)
    .text                                    0x08000cbe   Section        0  _printf_char.o(.text)
    .text                                    0x08000cec   Section        0  _printf_char_file.o(.text)
    .text                                    0x08000d10   Section        0  _printf_wctomb.o(.text)
    .text                                    0x08000dcc   Section        0  _printf_oct_int_ll.o(.text)
    _printf_longlong_oct_internal            0x08000dcd   Thumb Code     0  _printf_oct_int_ll.o(.text)
    .text                                    0x08000e3c   Section      100  rt_memcpy_w.o(.text)
    .text                                    0x08000ea0   Section       78  rt_memclr_w.o(.text)
    .text                                    0x08000ef0   Section        8  rt_errno_addr_intlibspace.o(.text)
    .text                                    0x08000ef8   Section        0  _printf_fp_dec.o(.text)
    _fp_digits                               0x08000efb   Thumb Code   428  _printf_fp_dec.o(.text)
    .text                                    0x08001314   Section        0  _printf_fp_hex.o(.text)
    .text                                    0x08001610   Section        0  _printf_wchar.o(.text)
    .text                                    0x0800163c   Section        0  ferror.o(.text)
    .text                                    0x08001644   Section        0  _wcrtomb.o(.text)
    .text                                    0x08001684   Section        8  libspace.o(.text)
    .text                                    0x0800168c   Section       74  sys_stackheap_outer.o(.text)
    .text                                    0x080016d8   Section       16  rt_ctype_table.o(.text)
    .text                                    0x080016e8   Section        8  rt_locale_intlibspace.o(.text)
    .text                                    0x080016f0   Section        0  _printf_fp_infnan.o(.text)
    .text                                    0x08001770   Section        0  bigflt0.o(.text)
    .text                                    0x0800184c   Section        0  exit.o(.text)
    CL$$btod_d2e                             0x0800185e   Section       62  btod.o(CL$$btod_d2e)
    CL$$btod_d2e_denorm_low                  0x0800189c   Section       70  btod.o(CL$$btod_d2e_denorm_low)
    CL$$btod_d2e_norm_op1                    0x080018e2   Section       96  btod.o(CL$$btod_d2e_norm_op1)
    CL$$btod_div_common                      0x08001942   Section      824  btod.o(CL$$btod_div_common)
    CL$$btod_e2e                             0x08001c7a   Section      198  btod.o(CL$$btod_e2e)
    CL$$btod_ediv                            0x08001d40   Section       40  btod.o(CL$$btod_ediv)
    CL$$btod_emul                            0x08001d68   Section       40  btod.o(CL$$btod_emul)
    CL$$btod_mult_common                     0x08001d90   Section      580  btod.o(CL$$btod_mult_common)
    i.AT24CXX_Init                           0x08001fd4   Section        0  24cxx.o(i.AT24CXX_Init)
    i.AT24CXX_ReadLenByte                    0x08001fd8   Section        0  24cxx.o(i.AT24CXX_ReadLenByte)
    i.AT24CXX_ReadOneByte                    0x08002002   Section        0  24cxx.o(i.AT24CXX_ReadOneByte)
    i.AT24CXX_WriteLenByte                   0x08002044   Section        0  24cxx.o(i.AT24CXX_WriteLenByte)
    i.AT24CXX_WriteOneByte                   0x0800206e   Section        0  24cxx.o(i.AT24CXX_WriteOneByte)
    i.CT_IIC_Ack                             0x080020ac   Section        0  ctiic.o(i.CT_IIC_Ack)
    i.CT_IIC_Init                            0x080020f8   Section        0  ctiic.o(i.CT_IIC_Init)
    i.CT_IIC_NAck                            0x08002140   Section        0  ctiic.o(i.CT_IIC_NAck)
    i.CT_IIC_Read_Byte                       0x0800218c   Section        0  ctiic.o(i.CT_IIC_Read_Byte)
    i.CT_IIC_Send_Byte                       0x080021fc   Section        0  ctiic.o(i.CT_IIC_Send_Byte)
    i.CT_IIC_Start                           0x08002264   Section        0  ctiic.o(i.CT_IIC_Start)
    i.CT_IIC_Stop                            0x080022b0   Section        0  ctiic.o(i.CT_IIC_Stop)
    i.CT_IIC_Wait_Ack                        0x080022f4   Section        0  ctiic.o(i.CT_IIC_Wait_Ack)
    i.CmdError                               0x08002348   Section        0  sdio_sdcard.o(i.CmdError)
    i.CmdResp1Error                          0x08002374   Section        0  sdio_sdcard.o(i.CmdResp1Error)
    i.CmdResp2Error                          0x080023c0   Section        0  sdio_sdcard.o(i.CmdResp2Error)
    i.CmdResp3Error                          0x08002408   Section        0  sdio_sdcard.o(i.CmdResp3Error)
    i.CmdResp6Error                          0x08002438   Section        0  sdio_sdcard.o(i.CmdResp6Error)
    i.CmdResp7Error                          0x080024ac   Section        0  sdio_sdcard.o(i.CmdResp7Error)
    i.FT5206_Init                            0x080024ec   Section        0  ft5206.o(i.FT5206_Init)
    i.FT5206_RD_Reg                          0x080025d0   Section        0  ft5206.o(i.FT5206_RD_Reg)
    i.FT5206_Scan                            0x08002628   Section        0  ft5206.o(i.FT5206_Scan)
    i.FT5206_WR_Reg                          0x08002760   Section        0  ft5206.o(i.FT5206_WR_Reg)
    i.FTL_BadBlockMark                       0x080027a8   Section        0  ftl.o(i.FTL_BadBlockMark)
    i.FTL_BlockCompare                       0x080027d8   Section        0  ftl.o(i.FTL_BlockCompare)
    i.FTL_CheckBadBlock                      0x080028a8   Section        0  ftl.o(i.FTL_CheckBadBlock)
    i.FTL_CopyAndWriteToBlock                0x080028f4   Section        0  ftl.o(i.FTL_CopyAndWriteToBlock)
    i.FTL_CreateLUT                          0x080029bc   Section        0  ftl.o(i.FTL_CreateLUT)
    i.FTL_FindSamePlaneUnusedBlock           0x08002a84   Section        0  ftl.o(i.FTL_FindSamePlaneUnusedBlock)
    i.FTL_FindUnusedBlock                    0x08002ad0   Section        0  ftl.o(i.FTL_FindUnusedBlock)
    i.FTL_Format                             0x08002b14   Section        0  ftl.o(i.FTL_Format)
    i.FTL_Init                               0x08002bd4   Section        0  ftl.o(i.FTL_Init)
    i.FTL_LBNToPBN                           0x08002cb4   Section        0  ftl.o(i.FTL_LBNToPBN)
    i.FTL_ReadSectors                        0x08002cd0   Section        0  ftl.o(i.FTL_ReadSectors)
    i.FTL_UsedBlockMark                      0x08002de0   Section        0  ftl.o(i.FTL_UsedBlockMark)
    i.FTL_WriteSectors                       0x08002e00   Section        0  ftl.o(i.FTL_WriteSectors)
    i.FindSCR                                0x08002f18   Section        0  sdio_sdcard.o(i.FindSCR)
    i.GPIO_AF_Set                            0x08002ff8   Section        0  sys.o(i.GPIO_AF_Set)
    i.GPIO_Set                               0x08003018   Section        0  sys.o(i.GPIO_Set)
    i.GT9147_Init                            0x08003098   Section        0  gt9147.o(i.GT9147_Init)
    i.GT9147_RD_Reg                          0x080031c4   Section        0  gt9147.o(i.GT9147_RD_Reg)
    i.GT9147_Scan                            0x08003224   Section        0  gt9147.o(i.GT9147_Scan)
    i.GT9147_Send_Cfg                        0x080033f0   Section        0  gt9147.o(i.GT9147_Send_Cfg)
    i.GT9147_WR_Reg                          0x0800343c   Section        0  gt9147.o(i.GT9147_WR_Reg)
    i.Get_HzMat                              0x08003490   Section        0  text.o(i.Get_HzMat)
    i.IIC_Ack                                0x08003528   Section        0  myiic.o(i.IIC_Ack)
    i.IIC_Init                               0x08003568   Section        0  myiic.o(i.IIC_Init)
    i.IIC_NAck                               0x080035a0   Section        0  myiic.o(i.IIC_NAck)
    i.IIC_Read_Byte                          0x080035e0   Section        0  myiic.o(i.IIC_Read_Byte)
    i.IIC_Send_Byte                          0x08003648   Section        0  myiic.o(i.IIC_Send_Byte)
    i.IIC_Start                              0x080036a8   Section        0  myiic.o(i.IIC_Start)
    i.IIC_Stop                               0x080036e8   Section        0  myiic.o(i.IIC_Stop)
    i.IIC_Wait_Ack                           0x0800372c   Section        0  myiic.o(i.IIC_Wait_Ack)
    i.INTX_DISABLE                           0x08003780   Section        0  sys.o(i.INTX_DISABLE)
    i.INTX_ENABLE                            0x08003784   Section        0  sys.o(i.INTX_ENABLE)
    i.IsCardProgramming                      0x08003788   Section        0  sdio_sdcard.o(i.IsCardProgramming)
    i.KEY_Init                               0x08003808   Section        0  key.o(i.KEY_Init)
    i.KEY_Scan                               0x0800386c   Section        0  key.o(i.KEY_Scan)
    i.LCD_Clear                              0x0800390c   Section        0  lcd.o(i.LCD_Clear)
    i.LCD_Display_Dir                        0x08003954   Section        0  lcd.o(i.LCD_Display_Dir)
    i.LCD_DrawLine                           0x08003a48   Section        0  lcd.o(i.LCD_DrawLine)
    i.LCD_DrawPoint                          0x08003ae0   Section        0  lcd.o(i.LCD_DrawPoint)
    i.LCD_DrawRectangle                      0x08003b10   Section        0  lcd.o(i.LCD_DrawRectangle)
    i.LCD_Draw_Circle                        0x08003b4a   Section        0  lcd.o(i.LCD_Draw_Circle)
    i.LCD_Fast_DrawPoint                     0x08003bfc   Section        0  lcd.o(i.LCD_Fast_DrawPoint)
    i.LCD_Fill                               0x08003cf4   Section        0  lcd.o(i.LCD_Fill)
    i.LCD_Init                               0x08003d54   Section        0  lcd.o(i.LCD_Init)
    i.LCD_Pow                                0x0800621c   Section        0  lcd.o(i.LCD_Pow)
    i.LCD_RD_DATA                            0x0800622c   Section        0  lcd.o(i.LCD_RD_DATA)
    i.LCD_SSD_BackLightSet                   0x08006240   Section        0  lcd.o(i.LCD_SSD_BackLightSet)
    i.LCD_Scan_Dir                           0x08006290   Section        0  lcd.o(i.LCD_Scan_Dir)
    i.LCD_SetCursor                          0x08006448   Section        0  lcd.o(i.LCD_SetCursor)
    i.LCD_ShowChar                           0x0800654c   Section        0  lcd.o(i.LCD_ShowChar)
    i.LCD_ShowNum                            0x08006628   Section        0  lcd.o(i.LCD_ShowNum)
    i.LCD_ShowString                         0x0800669e   Section        0  lcd.o(i.LCD_ShowString)
    i.LCD_WR_DATA                            0x080066f4   Section        0  lcd.o(i.LCD_WR_DATA)
    i.LCD_WR_REG                             0x0800670c   Section        0  lcd.o(i.LCD_WR_REG)
    i.LCD_WriteRAM_Prepare                   0x08006724   Section        0  lcd.o(i.LCD_WriteRAM_Prepare)
    i.LCD_WriteReg                           0x08006738   Section        0  lcd.o(i.LCD_WriteReg)
    i.LED_Init                               0x08006748   Section        0  led.o(i.LED_Init)
    i.LTDC_Clear                             0x08006780   Section        0  ltdc.o(i.LTDC_Clear)
    i.LTDC_Clk_Set                           0x080067a0   Section        0  ltdc.o(i.LTDC_Clk_Set)
    i.LTDC_Display_Dir                       0x08006818   Section        0  ltdc.o(i.LTDC_Display_Dir)
    i.LTDC_Draw_Point                        0x08006840   Section        0  ltdc.o(i.LTDC_Draw_Point)
    i.LTDC_Fill                              0x0800687c   Section        0  ltdc.o(i.LTDC_Fill)
    i.LTDC_Init                              0x08006928   Section        0  ltdc.o(i.LTDC_Init)
    i.LTDC_Layer_Parameter_Config            0x08006c2c   Section        0  ltdc.o(i.LTDC_Layer_Parameter_Config)
    i.LTDC_Layer_Switch                      0x08006c74   Section        0  ltdc.o(i.LTDC_Layer_Switch)
    i.LTDC_Layer_Window_Config               0x08006cbc   Section        0  ltdc.o(i.LTDC_Layer_Window_Config)
    i.LTDC_PanelID_Read                      0x08006da4   Section        0  ltdc.o(i.LTDC_PanelID_Read)
    i.LTDC_Switch                            0x08006e38   Section        0  ltdc.o(i.LTDC_Switch)
    i.MY_NVIC_Init                           0x08006e58   Section        0  sys.o(i.MY_NVIC_Init)
    i.MY_NVIC_PriorityGroupConfig            0x08006ea4   Section        0  sys.o(i.MY_NVIC_PriorityGroupConfig)
    i.MY_NVIC_SetVectorTable                 0x08006ec8   Section        0  sys.o(i.MY_NVIC_SetVectorTable)
    i.NAND_CopyPageWithWrite                 0x08006ed8   Section        0  nand.o(i.NAND_CopyPageWithWrite)
    i.NAND_CopyPageWithoutWrite              0x0800707c   Section        0  nand.o(i.NAND_CopyPageWithoutWrite)
    i.NAND_Delay                             0x080070f4   Section        0  nand.o(i.NAND_Delay)
    i.NAND_ECC_Correction                    0x08007104   Section        0  nand.o(i.NAND_ECC_Correction)
    i.NAND_ECC_Get_OE                        0x08007198   Section        0  nand.o(i.NAND_ECC_Get_OE)
    i.NAND_EraseBlock                        0x080071c8   Section        0  nand.o(i.NAND_EraseBlock)
    i.NAND_Init                              0x0800721c   Section        0  nand.o(i.NAND_Init)
    i.NAND_ModeSet                           0x080073a8   Section        0  nand.o(i.NAND_ModeSet)
    i.NAND_ReadID                            0x080073dc   Section        0  nand.o(i.NAND_ReadID)
    i.NAND_ReadPage                          0x08007424   Section        0  nand.o(i.NAND_ReadPage)
    i.NAND_ReadPageComp                      0x08007660   Section        0  nand.o(i.NAND_ReadPageComp)
    i.NAND_ReadSpare                         0x080076c8   Section        0  nand.o(i.NAND_ReadSpare)
    i.NAND_ReadStatus                        0x080076e8   Section        0  nand.o(i.NAND_ReadStatus)
    i.NAND_Reset                             0x0800773c   Section        0  nand.o(i.NAND_Reset)
    i.NAND_WaitForReady                      0x08007758   Section        0  nand.o(i.NAND_WaitForReady)
    i.NAND_WaitRB                            0x08007780   Section        0  nand.o(i.NAND_WaitRB)
    i.NAND_WritePage                         0x080077bc   Section        0  nand.o(i.NAND_WritePage)
    i.NAND_WritePageConst                    0x0800790c   Section        0  nand.o(i.NAND_WritePageConst)
    i.NAND_WriteSpare                        0x0800795c   Section        0  nand.o(i.NAND_WriteSpare)
    i.OTT2001A_Init                          0x0800797c   Section        0  ott2001a.o(i.OTT2001A_Init)
    i.OTT2001A_RD_Reg                        0x08007a20   Section        0  ott2001a.o(i.OTT2001A_RD_Reg)
    i.OTT2001A_Scan                          0x08007a80   Section        0  ott2001a.o(i.OTT2001A_Scan)
    i.OTT2001A_SensorControl                 0x08007bf4   Section        0  ott2001a.o(i.OTT2001A_SensorControl)
    i.OTT2001A_WR_Reg                        0x08007c12   Section        0  ott2001a.o(i.OTT2001A_WR_Reg)
    i.SDEnWideBus                            0x08007c64   Section        0  sdio_sdcard.o(i.SDEnWideBus)
    i.SDIO_Clock_Set                         0x08007cc8   Section        0  sdio_sdcard.o(i.SDIO_Clock_Set)
    i.SDIO_IRQHandler                        0x08007cdc   Section        0  sdio_sdcard.o(i.SDIO_IRQHandler)
    i.SDIO_Send_Cmd                          0x08007ce0   Section        0  sdio_sdcard.o(i.SDIO_Send_Cmd)
    i.SDIO_Send_Data_Cfg                     0x08007d04   Section        0  sdio_sdcard.o(i.SDIO_Send_Data_Cfg)
    i.SDRAM_Init                             0x08007d34   Section        0  sdram.o(i.SDRAM_Init)
    i.SDRAM_Send_Cmd                         0x08007fc0   Section        0  sdram.o(i.SDRAM_Send_Cmd)
    i.SD_DMA_Config                          0x08007ffc   Section        0  sdio_sdcard.o(i.SD_DMA_Config)
    i.SD_EnableWideBusOperation              0x0800805c   Section        0  sdio_sdcard.o(i.SD_EnableWideBusOperation)
    i.SD_GetCardInfo                         0x080080a0   Section        0  sdio_sdcard.o(i.SD_GetCardInfo)
    i.SD_Init                                0x080082b8   Section        0  sdio_sdcard.o(i.SD_Init)
    i.SD_InitializeCards                     0x08008408   Section        0  sdio_sdcard.o(i.SD_InitializeCards)
    i.SD_PowerON                             0x080084e4   Section        0  sdio_sdcard.o(i.SD_PowerON)
    i.SD_ProcessIRQSrc                       0x08008610   Section        0  sdio_sdcard.o(i.SD_ProcessIRQSrc)
    i.SD_ReadBlocks                          0x080086e8   Section        0  sdio_sdcard.o(i.SD_ReadBlocks)
    i.SD_ReadDisk                            0x080088b4   Section        0  sdio_sdcard.o(i.SD_ReadDisk)
    i.SD_SelectDeselect                      0x0800892c   Section        0  sdio_sdcard.o(i.SD_SelectDeselect)
    i.SD_SetDeviceMode                       0x08008944   Section        0  sdio_sdcard.o(i.SD_SetDeviceMode)
    i.SD_WriteBlocks                         0x0800895c   Section        0  sdio_sdcard.o(i.SD_WriteBlocks)
    i.SD_WriteDisk                           0x08008c24   Section        0  sdio_sdcard.o(i.SD_WriteDisk)
    i.SPI5_Init                              0x08008c94   Section        0  spi.o(i.SPI5_Init)
    i.SPI5_ReadWriteByte                     0x08008d1c   Section        0  spi.o(i.SPI5_ReadWriteByte)
    i.SPI5_SetSpeed                          0x08008d38   Section        0  spi.o(i.SPI5_SetSpeed)
    i.Show_Font                              0x08008d60   Section        0  text.o(i.Show_Font)
    i.Show_Str                               0x08008e08   Section        0  text.o(i.Show_Str)
    i.Show_Str_Mid                           0x08008eb8   Section        0  text.o(i.Show_Str_Mid)
    i.Stm32_Clock_Init                       0x08008f10   Section        0  sys.o(i.Stm32_Clock_Init)
    i.Sys_Clock_Set                          0x08008f5c   Section        0  sys.o(i.Sys_Clock_Set)
    i.TIM3_IRQHandler                        0x08009030   Section        0  timer.o(i.TIM3_IRQHandler)
    i.TIM4_IRQHandler                        0x0800905c   Section        0  usmart.o(i.TIM4_IRQHandler)
    i.TIM5_IRQHandler                        0x08009090   Section        0  timer.o(i.TIM5_IRQHandler)
    i.TIM7_IRQHandler                        0x08009120   Section        0  timer.o(i.TIM7_IRQHandler)
    i.TIM7_Int_Init                          0x08009150   Section        0  timer.o(i.TIM7_Int_Init)
    i.TP_Adj_Info_Show                       0x08009198   Section        0  touch.o(i.TP_Adj_Info_Show)
    i.TP_Adjust                              0x08009310   Section        0  touch.o(i.TP_Adjust)
    i.TP_Drow_Touch_Point                    0x08009878   Section        0  touch.o(i.TP_Drow_Touch_Point)
    i.TP_Get_Adjdata                         0x080098e8   Section        0  touch.o(i.TP_Get_Adjdata)
    i.TP_Init                                0x08009974   Section        0  touch.o(i.TP_Init)
    i.TP_Read_AD                             0x08009aa0   Section        0  touch.o(i.TP_Read_AD)
    i.TP_Read_XOY                            0x08009b2c   Section        0  touch.o(i.TP_Read_XOY)
    i.TP_Read_XY                             0x08009b8c   Section        0  touch.o(i.TP_Read_XY)
    i.TP_Read_XY2                            0x08009bb4   Section        0  touch.o(i.TP_Read_XY2)
    i.TP_Save_Adjdata                        0x08009c30   Section        0  touch.o(i.TP_Save_Adjdata)
    i.TP_Scan                                0x08009ca8   Section        0  touch.o(i.TP_Scan)
    i.TP_Write_Byte                          0x08009d68   Section        0  touch.o(i.TP_Write_Byte)
    i.Timer4_Init                            0x08009db0   Section        0  usmart.o(i.Timer4_Init)
    i.USART1_IRQHandler                      0x08009df0   Section        0  usart.o(i.USART1_IRQHandler)
    i.USART3_IRQHandler                      0x08009e48   Section        0  usart3.o(i.USART3_IRQHandler)
    i.W25QXX_Erase_Sector                    0x08009ea8   Section        0  w25qxx.o(i.W25QXX_Erase_Sector)
    i.W25QXX_Init                            0x08009f14   Section        0  w25qxx.o(i.W25QXX_Init)
    i.W25QXX_Read                            0x08009f80   Section        0  w25qxx.o(i.W25QXX_Read)
    i.W25QXX_ReadID                          0x08009fe8   Section        0  w25qxx.o(i.W25QXX_ReadID)
    i.W25QXX_ReadSR                          0x0800a02c   Section        0  w25qxx.o(i.W25QXX_ReadSR)
    i.W25QXX_Wait_Busy                       0x0800a064   Section        0  w25qxx.o(i.W25QXX_Wait_Busy)
    i.W25QXX_Write                           0x0800a072   Section        0  w25qxx.o(i.W25QXX_Write)
    i.W25QXX_Write_Enable                    0x0800a118   Section        0  w25qxx.o(i.W25QXX_Write_Enable)
    i.W25QXX_Write_NoCheck                   0x0800a138   Section        0  w25qxx.o(i.W25QXX_Write_NoCheck)
    i.W25QXX_Write_Page                      0x0800a178   Section        0  w25qxx.o(i.W25QXX_Write_Page)
    i.__ARM_fpclassify                       0x0800a1e4   Section        0  fpclassify.o(i.__ARM_fpclassify)
    i.__hardfp_sqrt                          0x0800a214   Section        0  sqrt.o(i.__hardfp_sqrt)
    i._is_digit                              0x0800a28e   Section        0  __printf_wp.o(i._is_digit)
    i._sys_exit                              0x0800a29c   Section        0  usart.o(i._sys_exit)
    i.atk_8266_apsta_test                    0x0800a2a0   Section        0  apsta.o(i.atk_8266_apsta_test)
    i.atk_8266_at_response                   0x0800aa90   Section        0  common.o(i.atk_8266_at_response)
    i.atk_8266_check_cmd                     0x0800aac4   Section        0  common.o(i.atk_8266_check_cmd)
    i.atk_8266_consta_check                  0x0800aaec   Section        0  common.o(i.atk_8266_consta_check)
    i.atk_8266_get_ip                        0x0800ab2c   Section        0  common.o(i.atk_8266_get_ip)
    i.atk_8266_get_keynum                    0x0800ac6c   Section        0  common.o(i.atk_8266_get_keynum)
    i.atk_8266_get_wanip                     0x0800ad34   Section        0  common.o(i.atk_8266_get_wanip)
    i.atk_8266_ip_set                        0x0800ad84   Section        0  common.o(i.atk_8266_ip_set)
    i.atk_8266_key_staset                    0x0800af18   Section        0  common.o(i.atk_8266_key_staset)
    i.atk_8266_load_keyboard                 0x0800afb4   Section        0  common.o(i.atk_8266_load_keyboard)
    i.atk_8266_mode_cofig                    0x0800b0c0   Section        0  common.o(i.atk_8266_mode_cofig)
    i.atk_8266_msg_show                      0x0800b320   Section        0  common.o(i.atk_8266_msg_show)
    i.atk_8266_mtest_ui                      0x0800b64c   Section        0  common.o(i.atk_8266_mtest_ui)
    i.atk_8266_netpro_sel                    0x0800b744   Section        0  common.o(i.atk_8266_netpro_sel)
    i.atk_8266_quit_trans                    0x0800b978   Section        0  common.o(i.atk_8266_quit_trans)
    i.atk_8266_send_cmd                      0x0800b9c8   Section        0  common.o(i.atk_8266_send_cmd)
    i.atk_8266_send_data                     0x0800ba34   Section        0  common.o(i.atk_8266_send_data)
    i.atk_8266_test                          0x0800ba88   Section        0  common.o(i.atk_8266_test)
    i.atk_8266_wifiap_test                   0x0800bc88   Section        0  wifiap.o(i.atk_8266_wifiap_test)
    i.atk_8266_wificonf_show                 0x0800c3e4   Section        0  common.o(i.atk_8266_wificonf_show)
    i.atk_8266_wifista_test                  0x0800c4cc   Section        0  wifista.o(i.atk_8266_wifista_test)
    i.change_bitmap                          0x0800cc98   Section        0  ff.o(i.change_bitmap)
    change_bitmap                            0x0800cc99   Thumb Code   118  ff.o(i.change_bitmap)
    i.check_fs                               0x0800cd10   Section        0  ff.o(i.check_fs)
    check_fs                                 0x0800cd11   Thumb Code   100  ff.o(i.check_fs)
    i.chk_chr                                0x0800cd84   Section        0  ff.o(i.chk_chr)
    chk_chr                                  0x0800cd85   Thumb Code    16  ff.o(i.chk_chr)
    i.clmt_clust                             0x0800cd94   Section        0  ff.o(i.clmt_clust)
    clmt_clust                               0x0800cd95   Thumb Code    50  ff.o(i.clmt_clust)
    i.clust2sect                             0x0800cdc6   Section        0  ff.o(i.clust2sect)
    clust2sect                               0x0800cdc7   Thumb Code    24  ff.o(i.clust2sect)
    i.cmp_lfn                                0x0800cde0   Section        0  ff.o(i.cmp_lfn)
    cmp_lfn                                  0x0800cde1   Thumb Code   128  ff.o(i.cmp_lfn)
    i.create_chain                           0x0800ce64   Section        0  ff.o(i.create_chain)
    create_chain                             0x0800ce65   Thumb Code   270  ff.o(i.create_chain)
    i.create_name                            0x0800cf74   Section        0  ff.o(i.create_name)
    create_name                              0x0800cf75   Thumb Code   514  ff.o(i.create_name)
    i.create_xdir                            0x0800d18c   Section        0  ff.o(i.create_xdir)
    create_xdir                              0x0800d18d   Thumb Code   124  ff.o(i.create_xdir)
    i.delay_init                             0x0800d208   Section        0  delay.o(i.delay_init)
    i.delay_ms                               0x0800d22c   Section        0  delay.o(i.delay_ms)
    i.delay_us                               0x0800d260   Section        0  delay.o(i.delay_us)
    i.delay_xms                              0x0800d288   Section        0  delay.o(i.delay_xms)
    i.dir_alloc                              0x0800d2b0   Section        0  ff.o(i.dir_alloc)
    dir_alloc                                0x0800d2b1   Thumb Code    88  ff.o(i.dir_alloc)
    i.dir_find                               0x0800d308   Section        0  ff.o(i.dir_find)
    dir_find                                 0x0800d309   Thumb Code   316  ff.o(i.dir_find)
    i.dir_next                               0x0800d444   Section        0  ff.o(i.dir_next)
    dir_next                                 0x0800d445   Thumb Code   260  ff.o(i.dir_next)
    i.dir_read                               0x0800d548   Section        0  ff.o(i.dir_read)
    dir_read                                 0x0800d549   Thumb Code   230  ff.o(i.dir_read)
    i.dir_register                           0x0800d630   Section        0  ff.o(i.dir_register)
    dir_register                             0x0800d631   Thumb Code   566  ff.o(i.dir_register)
    i.dir_sdi                                0x0800d86c   Section        0  ff.o(i.dir_sdi)
    dir_sdi                                  0x0800d86d   Thumb Code   150  ff.o(i.dir_sdi)
    i.disk_initialize                        0x0800d902   Section        0  diskio.o(i.disk_initialize)
    i.disk_ioctl                             0x0800d92c   Section        0  diskio.o(i.disk_ioctl)
    i.disk_read                              0x0800d9d0   Section        0  diskio.o(i.disk_read)
    i.disk_status                            0x0800da36   Section        0  diskio.o(i.disk_status)
    i.disk_write                             0x0800da3a   Section        0  diskio.o(i.disk_write)
    i.exfuns_init                            0x0800daa0   Section        0  exfuns.o(i.exfuns_init)
    i.f_close                                0x0800db04   Section        0  ff.o(i.f_close)
    i.f_mount                                0x0800db24   Section        0  ff.o(i.f_mount)
    i.f_open                                 0x0800db70   Section        0  ff.o(i.f_open)
    i.f_read                                 0x0800dde2   Section        0  ff.o(i.f_read)
    i.f_sync                                 0x0800df58   Section        0  ff.o(i.f_sync)
    i.ff_convert                             0x0800e0ac   Section        0  mycc936.o(i.ff_convert)
    i.ff_memalloc                            0x0800e11c   Section        0  diskio.o(i.ff_memalloc)
    i.ff_memfree                             0x0800e124   Section        0  diskio.o(i.ff_memfree)
    i.ff_wtoupper                            0x0800e12c   Section        0  mycc936.o(i.ff_wtoupper)
    i.fill_fat_chain                         0x0800e150   Section        0  ff.o(i.fill_fat_chain)
    fill_fat_chain                           0x0800e151   Thumb Code    46  ff.o(i.fill_fat_chain)
    i.find_bitmap                            0x0800e17e   Section        0  ff.o(i.find_bitmap)
    find_bitmap                              0x0800e17f   Thumb Code   146  ff.o(i.find_bitmap)
    i.find_volume                            0x0800e210   Section        0  ff.o(i.find_volume)
    find_volume                              0x0800e211   Thumb Code   832  ff.o(i.find_volume)
    i.follow_path                            0x0800e560   Section        0  ff.o(i.follow_path)
    follow_path                              0x0800e561   Thumb Code   180  ff.o(i.follow_path)
    i.font_init                              0x0800e614   Section        0  fontupd.o(i.font_init)
    i.fputc                                  0x0800e654   Section        0  usart.o(i.fputc)
    i.fupd_prog                              0x0800e668   Section        0  fontupd.o(i.fupd_prog)
    i.gen_numname                            0x0800e6ec   Section        0  ff.o(i.gen_numname)
    gen_numname                              0x0800e6ed   Thumb Code   134  ff.o(i.gen_numname)
    i.get_fat                                0x0800e778   Section        0  ff.o(i.get_fat)
    get_fat                                  0x0800e779   Thumb Code   294  ff.o(i.get_fat)
    i.get_fattime                            0x0800e89e   Section        0  diskio.o(i.get_fattime)
    i.get_ldnumber                           0x0800e8a2   Section        0  ff.o(i.get_ldnumber)
    get_ldnumber                             0x0800e8a3   Thumb Code    60  ff.o(i.get_ldnumber)
    i.ld_clust                               0x0800e8de   Section        0  ff.o(i.ld_clust)
    ld_clust                                 0x0800e8df   Thumb Code    38  ff.o(i.ld_clust)
    i.ld_dword                               0x0800e904   Section        0  ff.o(i.ld_dword)
    ld_dword                                 0x0800e905   Thumb Code    22  ff.o(i.ld_dword)
    i.ld_qword                               0x0800e91a   Section        0  ff.o(i.ld_qword)
    ld_qword                                 0x0800e91b   Thumb Code    86  ff.o(i.ld_qword)
    i.ld_word                                0x0800e970   Section        0  ff.o(i.ld_word)
    ld_word                                  0x0800e971   Thumb Code    10  ff.o(i.ld_word)
    i.load_obj_dir                           0x0800e97a   Section        0  ff.o(i.load_obj_dir)
    load_obj_dir                             0x0800e97b   Thumb Code    56  ff.o(i.load_obj_dir)
    i.load_xdir                              0x0800e9b2   Section        0  ff.o(i.load_xdir)
    load_xdir                                0x0800e9b3   Thumb Code   170  ff.o(i.load_xdir)
    i.main                                   0x0800ea5c   Section        0  test.o(i.main)
    i.mem_cmp                                0x0800ec70   Section        0  ff.o(i.mem_cmp)
    mem_cmp                                  0x0800ec71   Thumb Code    24  ff.o(i.mem_cmp)
    i.mem_cpy                                0x0800ec88   Section        0  ff.o(i.mem_cpy)
    mem_cpy                                  0x0800ec89   Thumb Code    18  ff.o(i.mem_cpy)
    i.mem_set                                0x0800ec9a   Section        0  ff.o(i.mem_set)
    mem_set                                  0x0800ec9b   Thumb Code    12  ff.o(i.mem_set)
    i.move_window                            0x0800eca6   Section        0  ff.o(i.move_window)
    move_window                              0x0800eca7   Thumb Code    50  ff.o(i.move_window)
    i.my_mem_free                            0x0800ecd8   Section        0  malloc.o(i.my_mem_free)
    i.my_mem_init                            0x0800ed30   Section        0  malloc.o(i.my_mem_init)
    i.my_mem_malloc                          0x0800ed5c   Section        0  malloc.o(i.my_mem_malloc)
    i.my_mem_perused                         0x0800ede4   Section        0  malloc.o(i.my_mem_perused)
    i.myfree                                 0x0800ee20   Section        0  malloc.o(i.myfree)
    i.mymalloc                               0x0800ee38   Section        0  malloc.o(i.mymalloc)
    i.mymemset                               0x0800ee58   Section        0  malloc.o(i.mymemset)
    i.pick_lfn                               0x0800ee64   Section        0  ff.o(i.pick_lfn)
    pick_lfn                                 0x0800ee65   Thumb Code   108  ff.o(i.pick_lfn)
    i.put_fat                                0x0800eed4   Section        0  ff.o(i.put_fat)
    put_fat                                  0x0800eed5   Thumb Code   246  ff.o(i.put_fat)
    i.read_addr                              0x0800efca   Section        0  usmart.o(i.read_addr)
    i.remove_chain                           0x0800efce   Section        0  ff.o(i.remove_chain)
    remove_chain                             0x0800efcf   Thumb Code   232  ff.o(i.remove_chain)
    i.st_clust                               0x0800f0b6   Section        0  ff.o(i.st_clust)
    st_clust                                 0x0800f0b7   Thumb Code    40  ff.o(i.st_clust)
    i.st_dword                               0x0800f0de   Section        0  ff.o(i.st_dword)
    st_dword                                 0x0800f0df   Thumb Code    16  ff.o(i.st_dword)
    i.st_qword                               0x0800f0ee   Section        0  ff.o(i.st_qword)
    st_qword                                 0x0800f0ef   Thumb Code    74  ff.o(i.st_qword)
    i.st_word                                0x0800f138   Section        0  ff.o(i.st_word)
    st_word                                  0x0800f139   Thumb Code     8  ff.o(i.st_word)
    i.store_xdir                             0x0800f140   Section        0  ff.o(i.store_xdir)
    store_xdir                               0x0800f141   Thumb Code   108  ff.o(i.store_xdir)
    i.sum_sfn                                0x0800f1ac   Section        0  ff.o(i.sum_sfn)
    sum_sfn                                  0x0800f1ad   Thumb Code    26  ff.o(i.sum_sfn)
    i.sync_fs                                0x0800f1c8   Section        0  ff.o(i.sync_fs)
    sync_fs                                  0x0800f1c9   Thumb Code   126  ff.o(i.sync_fs)
    i.sync_window                            0x0800f250   Section        0  ff.o(i.sync_window)
    sync_window                              0x0800f251   Thumb Code    82  ff.o(i.sync_window)
    i.u3_printf                              0x0800f2a4   Section        0  usart3.o(i.u3_printf)
    i.uart_init                              0x0800f2e4   Section        0  usart.o(i.uart_init)
    i.updata_fontx                           0x0800f3c0   Section        0  fontupd.o(i.updata_fontx)
    i.update_font                            0x0800f4b0   Section        0  fontupd.o(i.update_font)
    i.usart3_init                            0x0800f660   Section        0  usart3.o(i.usart3_init)
    i.usmart_cmd_rec                         0x0800f758   Section        0  usmart.o(i.usmart_cmd_rec)
    i.usmart_exe                             0x0800f7ec   Section        0  usmart.o(i.usmart_exe)
    i.usmart_get_aparm                       0x0800fa4c   Section        0  usmart_str.o(i.usmart_get_aparm)
    i.usmart_get_cmdname                     0x0800faf0   Section        0  usmart_str.o(i.usmart_get_cmdname)
    i.usmart_get_fname                       0x0800fb20   Section        0  usmart_str.o(i.usmart_get_fname)
    i.usmart_get_fparam                      0x0800fc88   Section        0  usmart_str.o(i.usmart_get_fparam)
    i.usmart_get_parmpos                     0x0800fd58   Section        0  usmart_str.o(i.usmart_get_parmpos)
    i.usmart_get_runtime                     0x0800fd7c   Section        0  usmart.o(i.usmart_get_runtime)
    i.usmart_init                            0x0800fdac   Section        0  usmart.o(i.usmart_init)
    i.usmart_pow                             0x0800fdd4   Section        0  usmart_str.o(i.usmart_pow)
    i.usmart_reset_runtime                   0x0800fde4   Section        0  usmart.o(i.usmart_reset_runtime)
    i.usmart_scan                            0x0800fe10   Section        0  usmart.o(i.usmart_scan)
    i.usmart_search_nextc                    0x0800feb4   Section        0  usmart_str.o(i.usmart_search_nextc)
    i.usmart_str2num                         0x0800fec4   Section        0  usmart_str.o(i.usmart_str2num)
    i.usmart_strcmp                          0x0800ff9a   Section        0  usmart_str.o(i.usmart_strcmp)
    i.usmart_strcopy                         0x0800ffb2   Section        0  usmart_str.o(i.usmart_strcopy)
    i.usmart_strlen                          0x0800ffc4   Section        0  usmart_str.o(i.usmart_strlen)
    i.usmart_sys_cmd_exe                     0x0800ffd8   Section        0  usmart.o(i.usmart_sys_cmd_exe)
    i.validate                               0x08010658   Section        0  ff.o(i.validate)
    validate                                 0x08010659   Thumb Code    50  ff.o(i.validate)
    i.write_addr                             0x0801068a   Section        0  usmart.o(i.write_addr)
    i.xdir_sum                               0x0801068e   Section        0  ff.o(i.xdir_sum)
    xdir_sum                                 0x0801068f   Thumb Code    52  ff.o(i.xdir_sum)
    i.xname_sum                              0x080106c2   Section        0  ff.o(i.xname_sum)
    xname_sum                                0x080106c3   Thumb Code    60  ff.o(i.xname_sum)
    locale$$code                             0x08010700   Section       44  lc_numeric_c.o(locale$$code)
    locale$$code                             0x0801072c   Section       44  lc_ctype_c.o(locale$$code)
    x$fpl$dadd                               0x08010758   Section      336  daddsub_clz.o(x$fpl$dadd)
    $v0                                      0x08010758   Number         0  daddsub_clz.o(x$fpl$dadd)
    _dadd1                                   0x08010769   Thumb Code     0  daddsub_clz.o(x$fpl$dadd)
    x$fpl$dcmpinf                            0x080108a8   Section       24  dcmpi.o(x$fpl$dcmpinf)
    $v0                                      0x080108a8   Number         0  dcmpi.o(x$fpl$dcmpinf)
    x$fpl$dfixu                              0x080108c0   Section       90  dfixu.o(x$fpl$dfixu)
    $v0                                      0x080108c0   Number         0  dfixu.o(x$fpl$dfixu)
    x$fpl$dfltu                              0x0801091a   Section       38  dflt_clz.o(x$fpl$dfltu)
    $v0                                      0x0801091a   Number         0  dflt_clz.o(x$fpl$dfltu)
    x$fpl$dleqf                              0x08010940   Section      120  dleqf.o(x$fpl$dleqf)
    $v0                                      0x08010940   Number         0  dleqf.o(x$fpl$dleqf)
    x$fpl$dmul                               0x080109b8   Section      340  dmul.o(x$fpl$dmul)
    $v0                                      0x080109b8   Number         0  dmul.o(x$fpl$dmul)
    x$fpl$dnaninf                            0x08010b0c   Section      156  dnaninf.o(x$fpl$dnaninf)
    $v0                                      0x08010b0c   Number         0  dnaninf.o(x$fpl$dnaninf)
    x$fpl$dretinf                            0x08010ba8   Section       12  dretinf.o(x$fpl$dretinf)
    $v0                                      0x08010ba8   Number         0  dretinf.o(x$fpl$dretinf)
    x$fpl$drleqf                             0x08010bb4   Section      108  drleqf.o(x$fpl$drleqf)
    $v0                                      0x08010bb4   Number         0  drleqf.o(x$fpl$drleqf)
    x$fpl$drsb                               0x08010c20   Section       22  daddsub_clz.o(x$fpl$drsb)
    $v0                                      0x08010c20   Number         0  daddsub_clz.o(x$fpl$drsb)
    x$fpl$dsqrt                              0x08010c38   Section      408  dsqrt_umaal.o(x$fpl$dsqrt)
    $v0                                      0x08010c38   Number         0  dsqrt_umaal.o(x$fpl$dsqrt)
    x$fpl$dsub                               0x08010dd0   Section      468  daddsub_clz.o(x$fpl$dsub)
    $v0                                      0x08010dd0   Number         0  daddsub_clz.o(x$fpl$dsub)
    _dsub1                                   0x08010de1   Thumb Code     0  daddsub_clz.o(x$fpl$dsub)
    x$fpl$f2d                                0x08010fa4   Section       86  f2d.o(x$fpl$f2d)
    $v0                                      0x08010fa4   Number         0  f2d.o(x$fpl$f2d)
    x$fpl$fnaninf                            0x08010ffa   Section      140  fnaninf.o(x$fpl$fnaninf)
    $v0                                      0x08010ffa   Number         0  fnaninf.o(x$fpl$fnaninf)
    x$fpl$fpinit                             0x08011086   Section       10  fpinit.o(x$fpl$fpinit)
    $v0                                      0x08011086   Number         0  fpinit.o(x$fpl$fpinit)
    x$fpl$printf1                            0x08011090   Section        4  printf1.o(x$fpl$printf1)
    $v0                                      0x08011090   Number         0  printf1.o(x$fpl$printf1)
    x$fpl$printf2                            0x08011094   Section        4  printf2.o(x$fpl$printf2)
    $v0                                      0x08011094   Number         0  printf2.o(x$fpl$printf2)
    .constdata                               0x08011098   Section    18240  lcd.o(.constdata)
    x$fpl$usenofp                            0x08011098   Section        0  usenofp.o(x$fpl$usenofp)
    .constdata                               0x080157d8   Section       10  ft5206.o(.constdata)
    .constdata                               0x080157e2   Section      194  gt9147.o(.constdata)
    .constdata                               0x080158a4   Section       10  ott2001a.o(.constdata)
    .constdata                               0x080158b0   Section        4  touch.o(.constdata)
    .constdata                               0x080158b4   Section       36  malloc.o(.constdata)
    .constdata                               0x080158d8   Section      960  mycc936.o(.constdata)
    tbl_lower                                0x080158d8   Data         480  mycc936.o(.constdata)
    tbl_upper                                0x08015ab8   Data         480  mycc936.o(.constdata)
    .constdata                               0x08015c98   Section       74  ff.o(.constdata)
    LfnOfs                                   0x08015c98   Data          13  ff.o(.constdata)
    badchr                                   0x08015ca5   Data          16  ff.o(.constdata)
    vst                                      0x08015cb6   Data          22  ff.o(.constdata)
    cst                                      0x08015ccc   Data          22  ff.o(.constdata)
    .constdata                               0x08015ce4   Section       40  fontupd.o(.constdata)
    .constdata                               0x08015d0c   Section       40  _printf_hex_int_ll_ptr.o(.constdata)
    uc_hextab                                0x08015d0c   Data          20  _printf_hex_int_ll_ptr.o(.constdata)
    lc_hextab                                0x08015d20   Data          20  _printf_hex_int_ll_ptr.o(.constdata)
    .constdata                               0x08015d34   Section       17  __printf_flags_ss_wp.o(.constdata)
    maptable                                 0x08015d34   Data          17  __printf_flags_ss_wp.o(.constdata)
    .constdata                               0x08015d48   Section        8  _printf_wctomb.o(.constdata)
    initial_mbstate                          0x08015d48   Data           8  _printf_wctomb.o(.constdata)
    .constdata                               0x08015d50   Section       38  _printf_fp_hex.o(.constdata)
    lc_hextab                                0x08015d50   Data          19  _printf_fp_hex.o(.constdata)
    uc_hextab                                0x08015d63   Data          19  _printf_fp_hex.o(.constdata)
    .constdata                               0x08015d78   Section      148  bigflt0.o(.constdata)
    tenpwrs_x                                0x08015d78   Data          60  bigflt0.o(.constdata)
    tenpwrs_i                                0x08015db4   Data          64  bigflt0.o(.constdata)
    .conststring                             0x08015e0c   Section      121  touch.o(.conststring)
    .conststring                             0x08015e88   Section      219  fontupd.o(.conststring)
    .conststring                             0x08015f64   Section       40  usmart.o(.conststring)
    .conststring                             0x08015f8c   Section      144  usmart_config.o(.conststring)
    .conststring                             0x0801601c   Section      164  common.o(.conststring)
    .conststring                             0x080160c0   Section        9  common.o(.conststring)
    .conststring                             0x080160cc   Section       12  common.o(.conststring)
    .conststring                             0x080160d8   Section       12  common.o(.conststring)
    .conststring                             0x080160e4   Section       34  common.o(.conststring)
    locale$$data                             0x08016128   Section       28  lc_numeric_c.o(locale$$data)
    __lcnum_c_name                           0x0801612c   Data           2  lc_numeric_c.o(locale$$data)
    __lcnum_c_start                          0x08016134   Data           0  lc_numeric_c.o(locale$$data)
    __lcnum_c_point                          0x08016140   Data           0  lc_numeric_c.o(locale$$data)
    __lcnum_c_thousands                      0x08016142   Data           0  lc_numeric_c.o(locale$$data)
    __lcnum_c_grouping                       0x08016143   Data           0  lc_numeric_c.o(locale$$data)
    locale$$data                             0x08016144   Section      272  lc_ctype_c.o(locale$$data)
    __lcnum_c_end                            0x08016144   Data           0  lc_numeric_c.o(locale$$data)
    __lcctype_c_name                         0x08016148   Data           2  lc_ctype_c.o(locale$$data)
    __lcctype_c_start                        0x08016150   Data           0  lc_ctype_c.o(locale$$data)
    __lcctype_c_end                          0x08016254   Data           0  lc_ctype_c.o(locale$$data)
    .ARM.__AT_0x10000000                     0x10000000   Section    61440  malloc.o(.ARM.__AT_0x10000000)
    .ARM.__AT_0x1000F000                     0x1000f000   Section     3840  malloc.o(.ARM.__AT_0x1000F000)
    .data                                    0x20000000   Section        4  delay.o(.data)
    fac_us                                   0x20000000   Data           1  delay.o(.data)
    fac_ms                                   0x20000002   Data           2  delay.o(.data)
    .data                                    0x20000004   Section        2  usart.o(.data)
    .data                                    0x20000008   Section        4  usart.o(.data)
    .data                                    0x2000000c   Section        1  key.o(.data)
    key_up                                   0x2000000c   Data           1  key.o(.data)
    .data                                    0x20000010   Section        8  lcd.o(.data)
    .data                                    0x20000018   Section        8  ltdc.o(.data)
    .data                                    0x20000020   Section       12  sdio_sdcard.o(.data)
    CardType                                 0x20000020   Data           1  sdio_sdcard.o(.data)
    DeviceMode                               0x20000021   Data           1  sdio_sdcard.o(.data)
    StopCondition                            0x20000022   Data           1  sdio_sdcard.o(.data)
    RCA                                      0x20000028   Data           4  sdio_sdcard.o(.data)
    .data                                    0x2000002c   Section        8  timer.o(.data)
    .data                                    0x20000034   Section        1  ft5206.o(.data)
    t                                        0x20000034   Data           1  ft5206.o(.data)
    .data                                    0x20000035   Section        1  gt9147.o(.data)
    t                                        0x20000035   Data           1  gt9147.o(.data)
    .data                                    0x20000036   Section        1  ott2001a.o(.data)
    t                                        0x20000036   Data           1  ott2001a.o(.data)
    .data                                    0x20000038   Section       56  touch.o(.data)
    .data                                    0x20000070   Section        2  w25qxx.o(.data)
    .data                                    0x20000074   Section        4  ftl.o(.data)
    curblock                                 0x20000074   Data           4  ftl.o(.data)
    .data                                    0x20000078   Section        2  usart3.o(.data)
    .data                                    0x2000007c   Section       36  malloc.o(.data)
    .data                                    0x200000a0   Section       12  exfuns.o(.data)
    .data                                    0x200000ac   Section        2  ff.o(.data)
    Fsid                                     0x200000ac   Data           2  ff.o(.data)
    .data                                    0x200000b0   Section       28  usmart.o(.data)
    .data                                    0x200000cc   Section       32  usmart_config.o(.data)
    .data                                    0x200000ec   Section      244  usmart_config.o(.data)
    .data                                    0x200001e0   Section      108  common.o(.data)
    key_x                                    0x200001e0   Data           1  common.o(.data)
    .data                                    0x2000024c   Section        4  common.o(.data)
    .data                                    0x20000250   Section        4  common.o(.data)
    .data                                    0x20000254   Section        4  common.o(.data)
    .data                                    0x20000258   Section        4  common.o(.data)
    .data                                    0x2000025c   Section       12  common.o(.data)
    .data                                    0x20000268   Section        1  wifista.o(.data)
    .bss                                     0x2000026c   Section      200  usart.o(.bss)
    .bss                                     0x20000334   Section       14  lcd.o(.bss)
    .bss                                     0x20000344   Section       32  ltdc.o(.bss)
    .bss                                     0x20000368   Section      632  sdio_sdcard.o(.bss)
    CSD_Tab                                  0x20000368   Data          16  sdio_sdcard.o(.bss)
    CID_Tab                                  0x20000378   Data          16  sdio_sdcard.o(.bss)
    .bss                                     0x200005e0   Section       92  nand.o(.bss)
    .bss                                     0x20000640   Section     1600  usart3.o(.bss)
    .bss                                     0x20000c80   Section    163840  malloc.o(.bss)
    .bss                                     0x20028c80   Section    10240  malloc.o(.bss)
    .bss                                     0x2002b480   Section       12  exfuns.o(.bss)
    .bss                                     0x2002b48c   Section       12  ff.o(.bss)
    FatFs                                    0x2002b48c   Data          12  ff.o(.bss)
    .bss                                     0x2002b498   Section       41  fontupd.o(.bss)
    .bss                                     0x2002b4c4   Section       96  libspace.o(.bss)
    HEAP                                     0x2002b528   Section        0  startup_stm32f429xx.o(HEAP)
    STACK                                    0x2002b528   Section     2048  startup_stm32f429xx.o(STACK)
    Heap_Mem                                 0x2002b528   Data           0  startup_stm32f429xx.o(HEAP)
    Stack_Mem                                0x2002b528   Data        2048  startup_stm32f429xx.o(STACK)
    __initial_sp                             0x2002bd28   Data           0  startup_stm32f429xx.o(STACK)
    .ARM.__AT_0xC0000000                     0xc0000000   Section    2048000  ltdc.o(.ARM.__AT_0xC0000000)
    .ARM.__AT_0xC01F4000                     0xc01f4000   Section    29605888  malloc.o(.ARM.__AT_0xC01F4000)
    .ARM.__AT_0xC1E30000                     0xc1e30000   Section    1850368  malloc.o(.ARM.__AT_0xC1E30000)

    Global Symbols

    Symbol Name                              Value     Ov Type        Size  Object(Section)

    BuildAttributes$$THM_ISAv4$E$P$D$K$B$S$7EM$VFPi3$EXTD16$VFPS$VFMA$PE$A:L22UL41UL21$X:L11$S22US41US21$IEEE1$IW$USESV6$~STKCKD$USESV7$~SHL$OTIME$ROPI$IEEEJ$EBA8$UX$STANDARDLIB$REQ8$PRES8$EABIv2 0x00000000   Number         0  anon$$obj.o ABSOLUTE
    __ARM_use_no_argv                        0x00000000   Number         0  test.o ABSOLUTE
    _printf_flags                            0x00000000   Number         0  printf_stubs.o ABSOLUTE
    _printf_return_value                     0x00000000   Number         0  printf_stubs.o ABSOLUTE
    _printf_sizespec                         0x00000000   Number         0  printf_stubs.o ABSOLUTE
    _printf_widthprec                        0x00000000   Number         0  printf_stubs.o ABSOLUTE
    __ARM_exceptions_init                     - Undefined Weak Reference
    __alloca_initialize                       - Undefined Weak Reference
    __arm_preinit_                            - Undefined Weak Reference
    __cpp_initialize__aeabi_                  - Undefined Weak Reference
    __cxa_finalize                            - Undefined Weak Reference
    __sigvec_lookup                           - Undefined Weak Reference
    _atexit_init                              - Undefined Weak Reference
    _call_atexit_fns                          - Undefined Weak Reference
    _clock_init                               - Undefined Weak Reference
    _fp_trap_init                             - Undefined Weak Reference
    _fp_trap_shutdown                         - Undefined Weak Reference
    _get_lc_collate                           - Undefined Weak Reference
    _get_lc_monetary                          - Undefined Weak Reference
    _get_lc_time                              - Undefined Weak Reference
    _getenv_init                              - Undefined Weak Reference
    _handle_redirection                       - Undefined Weak Reference
    _init_alloc                               - Undefined Weak Reference
    _init_user_alloc                          - Undefined Weak Reference
    _initio                                   - Undefined Weak Reference
    _mutex_acquire                            - Undefined Weak Reference
    _mutex_release                            - Undefined Weak Reference
    _printf_mbtowc                            - Undefined Weak Reference
    _printf_wc                                - Undefined Weak Reference
    _rand_init                                - Undefined Weak Reference
    _signal_finish                            - Undefined Weak Reference
    _signal_init                              - Undefined Weak Reference
    _terminate_alloc                          - Undefined Weak Reference
    _terminate_user_alloc                     - Undefined Weak Reference
    _terminateio                              - Undefined Weak Reference
    __Vectors_Size                           0x000001ac   Number         0  startup_stm32f429xx.o ABSOLUTE
    __Vectors                                0x08000000   Data           4  startup_stm32f429xx.o(RESET)
    __Vectors_End                            0x080001ac   Data           0  startup_stm32f429xx.o(RESET)
    __main                                   0x080001ad   Thumb Code     8  __main.o(!!!main)
    __scatterload                            0x080001b5   Thumb Code     0  __scatter.o(!!!scatter)
    __scatterload_rt2                        0x080001b5   Thumb Code    44  __scatter.o(!!!scatter)
    __scatterload_rt2_thumb_only             0x080001b5   Thumb Code     0  __scatter.o(!!!scatter)
    __scatterload_null                       0x080001c3   Thumb Code     0  __scatter.o(!!!scatter)
    __decompress                             0x080001e9   Thumb Code    90  __dczerorl2.o(!!dczerorl2)
    __decompress1                            0x080001e9   Thumb Code     0  __dczerorl2.o(!!dczerorl2)
    __scatterload_zeroinit                   0x08000245   Thumb Code    28  __scatter_zi.o(!!handler_zi)
    _printf_n                                0x08000261   Thumb Code     0  _printf_n.o(.ARM.Collect$$_printf_percent$$00000001)
    _printf_percent                          0x08000261   Thumb Code     0  _printf_percent.o(.ARM.Collect$$_printf_percent$$00000000)
    _printf_p                                0x08000267   Thumb Code     0  _printf_p.o(.ARM.Collect$$_printf_percent$$00000002)
    _printf_f                                0x0800026d   Thumb Code     0  _printf_f.o(.ARM.Collect$$_printf_percent$$00000003)
    _printf_e                                0x08000273   Thumb Code     0  _printf_e.o(.ARM.Collect$$_printf_percent$$00000004)
    _printf_g                                0x08000279   Thumb Code     0  _printf_g.o(.ARM.Collect$$_printf_percent$$00000005)
    _printf_a                                0x0800027f   Thumb Code     0  _printf_a.o(.ARM.Collect$$_printf_percent$$00000006)
    _printf_ll                               0x08000285   Thumb Code     0  _printf_ll.o(.ARM.Collect$$_printf_percent$$00000007)
    _printf_i                                0x0800028f   Thumb Code     0  _printf_i.o(.ARM.Collect$$_printf_percent$$00000008)
    _printf_d                                0x08000295   Thumb Code     0  _printf_d.o(.ARM.Collect$$_printf_percent$$00000009)
    _printf_u                                0x0800029b   Thumb Code     0  _printf_u.o(.ARM.Collect$$_printf_percent$$0000000A)
    _printf_o                                0x080002a1   Thumb Code     0  _printf_o.o(.ARM.Collect$$_printf_percent$$0000000B)
    _printf_x                                0x080002a7   Thumb Code     0  _printf_x.o(.ARM.Collect$$_printf_percent$$0000000C)
    _printf_lli                              0x080002ad   Thumb Code     0  _printf_lli.o(.ARM.Collect$$_printf_percent$$0000000D)
    _printf_lld                              0x080002b3   Thumb Code     0  _printf_lld.o(.ARM.Collect$$_printf_percent$$0000000E)
    _printf_llu                              0x080002b9   Thumb Code     0  _printf_llu.o(.ARM.Collect$$_printf_percent$$0000000F)
    _printf_llo                              0x080002bf   Thumb Code     0  _printf_llo.o(.ARM.Collect$$_printf_percent$$00000010)
    _printf_llx                              0x080002c5   Thumb Code     0  _printf_llx.o(.ARM.Collect$$_printf_percent$$00000011)
    _printf_l                                0x080002cb   Thumb Code     0  _printf_l.o(.ARM.Collect$$_printf_percent$$00000012)
    _printf_c                                0x080002d5   Thumb Code     0  _printf_c.o(.ARM.Collect$$_printf_percent$$00000013)
    _printf_s                                0x080002db   Thumb Code     0  _printf_s.o(.ARM.Collect$$_printf_percent$$00000014)
    _printf_lc                               0x080002e1   Thumb Code     0  _printf_lc.o(.ARM.Collect$$_printf_percent$$00000015)
    _printf_ls                               0x080002e7   Thumb Code     0  _printf_ls.o(.ARM.Collect$$_printf_percent$$00000016)
    _printf_percent_end                      0x080002ed   Thumb Code     0  _printf_percent_end.o(.ARM.Collect$$_printf_percent$$00000017)
    __rt_lib_init                            0x080002f1   Thumb Code     0  libinit.o(.ARM.Collect$$libinit$$00000000)
    __rt_lib_init_fp_1                       0x080002f3   Thumb Code     0  libinit2.o(.ARM.Collect$$libinit$$00000001)
    __rt_lib_init_heap_1                     0x080002f7   Thumb Code     0  libinit2.o(.ARM.Collect$$libinit$$0000000A)
    __rt_lib_init_lc_common                  0x080002f7   Thumb Code     0  libinit2.o(.ARM.Collect$$libinit$$0000000F)
    __rt_lib_init_preinit_1                  0x080002f7   Thumb Code     0  libinit2.o(.ARM.Collect$$libinit$$00000004)
    __rt_lib_init_rand_1                     0x080002f7   Thumb Code     0  libinit2.o(.ARM.Collect$$libinit$$0000000E)
    __rt_lib_init_user_alloc_1               0x080002f7   Thumb Code     0  libinit2.o(.ARM.Collect$$libinit$$0000000C)
    __rt_lib_init_lc_collate_1               0x080002fd   Thumb Code     0  libinit2.o(.ARM.Collect$$libinit$$00000011)
    __rt_lib_init_lc_ctype_2                 0x080002fd   Thumb Code     0  libinit2.o(.ARM.Collect$$libinit$$00000012)
    __rt_lib_init_lc_ctype_1                 0x08000309   Thumb Code     0  libinit2.o(.ARM.Collect$$libinit$$00000013)
    __rt_lib_init_lc_monetary_1              0x08000309   Thumb Code     0  libinit2.o(.ARM.Collect$$libinit$$00000015)
    __rt_lib_init_lc_numeric_2               0x08000309   Thumb Code     0  libinit2.o(.ARM.Collect$$libinit$$00000016)
    __rt_lib_init_alloca_1                   0x08000313   Thumb Code     0  libinit2.o(.ARM.Collect$$libinit$$0000002E)
    __rt_lib_init_argv_1                     0x08000313   Thumb Code     0  libinit2.o(.ARM.Collect$$libinit$$0000002C)
    __rt_lib_init_atexit_1                   0x08000313   Thumb Code     0  libinit2.o(.ARM.Collect$$libinit$$0000001B)
    __rt_lib_init_clock_1                    0x08000313   Thumb Code     0  libinit2.o(.ARM.Collect$$libinit$$00000021)
    __rt_lib_init_cpp_1                      0x08000313   Thumb Code     0  libinit2.o(.ARM.Collect$$libinit$$00000032)
    __rt_lib_init_exceptions_1               0x08000313   Thumb Code     0  libinit2.o(.ARM.Collect$$libinit$$00000030)
    __rt_lib_init_fp_trap_1                  0x08000313   Thumb Code     0  libinit2.o(.ARM.Collect$$libinit$$0000001F)
    __rt_lib_init_getenv_1                   0x08000313   Thumb Code     0  libinit2.o(.ARM.Collect$$libinit$$00000023)
    __rt_lib_init_lc_numeric_1               0x08000313   Thumb Code     0  libinit2.o(.ARM.Collect$$libinit$$00000017)
    __rt_lib_init_lc_time_1                  0x08000313   Thumb Code     0  libinit2.o(.ARM.Collect$$libinit$$00000019)
    __rt_lib_init_return                     0x08000313   Thumb Code     0  libinit2.o(.ARM.Collect$$libinit$$00000033)
    __rt_lib_init_signal_1                   0x08000313   Thumb Code     0  libinit2.o(.ARM.Collect$$libinit$$0000001D)
    __rt_lib_init_stdio_1                    0x08000313   Thumb Code     0  libinit2.o(.ARM.Collect$$libinit$$00000025)
    __rt_lib_shutdown                        0x08000315   Thumb Code     0  libshutdown.o(.ARM.Collect$$libshutdown$$00000000)
    __rt_lib_shutdown_cpp_1                  0x08000317   Thumb Code     0  libshutdown2.o(.ARM.Collect$$libshutdown$$00000002)
    __rt_lib_shutdown_fp_trap_1              0x08000317   Thumb Code     0  libshutdown2.o(.ARM.Collect$$libshutdown$$00000007)
    __rt_lib_shutdown_heap_1                 0x08000317   Thumb Code     0  libshutdown2.o(.ARM.Collect$$libshutdown$$0000000F)
    __rt_lib_shutdown_return                 0x08000317   Thumb Code     0  libshutdown2.o(.ARM.Collect$$libshutdown$$00000010)
    __rt_lib_shutdown_signal_1               0x08000317   Thumb Code     0  libshutdown2.o(.ARM.Collect$$libshutdown$$0000000A)
    __rt_lib_shutdown_stdio_1                0x08000317   Thumb Code     0  libshutdown2.o(.ARM.Collect$$libshutdown$$00000004)
    __rt_lib_shutdown_user_alloc_1           0x08000317   Thumb Code     0  libshutdown2.o(.ARM.Collect$$libshutdown$$0000000C)
    __rt_entry                               0x08000319   Thumb Code     0  __rtentry.o(.ARM.Collect$$rtentry$$00000000)
    __rt_entry_presh_1                       0x08000319   Thumb Code     0  __rtentry2.o(.ARM.Collect$$rtentry$$00000002)
    __rt_entry_sh                            0x08000319   Thumb Code     0  __rtentry4.o(.ARM.Collect$$rtentry$$00000004)
    __rt_entry_li                            0x0800031f   Thumb Code     0  __rtentry2.o(.ARM.Collect$$rtentry$$0000000A)
    __rt_entry_postsh_1                      0x0800031f   Thumb Code     0  __rtentry2.o(.ARM.Collect$$rtentry$$00000009)
    __rt_entry_main                          0x08000323   Thumb Code     0  __rtentry2.o(.ARM.Collect$$rtentry$$0000000D)
    __rt_entry_postli_1                      0x08000323   Thumb Code     0  __rtentry2.o(.ARM.Collect$$rtentry$$0000000C)
    __rt_exit                                0x0800032b   Thumb Code     0  rtexit.o(.ARM.Collect$$rtexit$$00000000)
    __rt_exit_ls                             0x0800032d   Thumb Code     0  rtexit2.o(.ARM.Collect$$rtexit$$00000003)
    __rt_exit_prels_1                        0x0800032d   Thumb Code     0  rtexit2.o(.ARM.Collect$$rtexit$$00000002)
    __rt_exit_exit                           0x08000331   Thumb Code     0  rtexit2.o(.ARM.Collect$$rtexit$$00000004)
    Reset_Handler                            0x08000339   Thumb Code    14  startup_stm32f429xx.o(.text)
    NMI_Handler                              0x08000347   Thumb Code     2  startup_stm32f429xx.o(.text)
    HardFault_Handler                        0x08000349   Thumb Code     2  startup_stm32f429xx.o(.text)
    MemManage_Handler                        0x0800034b   Thumb Code     2  startup_stm32f429xx.o(.text)
    BusFault_Handler                         0x0800034d   Thumb Code     2  startup_stm32f429xx.o(.text)
    UsageFault_Handler                       0x0800034f   Thumb Code     2  startup_stm32f429xx.o(.text)
    SVC_Handler                              0x08000351   Thumb Code     2  startup_stm32f429xx.o(.text)
    DebugMon_Handler                         0x08000353   Thumb Code     2  startup_stm32f429xx.o(.text)
    PendSV_Handler                           0x08000355   Thumb Code     2  startup_stm32f429xx.o(.text)
    SysTick_Handler                          0x08000357   Thumb Code     2  startup_stm32f429xx.o(.text)
    ADC_IRQHandler                           0x08000359   Thumb Code     0  startup_stm32f429xx.o(.text)
    CAN1_RX0_IRQHandler                      0x08000359   Thumb Code     0  startup_stm32f429xx.o(.text)
    CAN1_RX1_IRQHandler                      0x08000359   Thumb Code     0  startup_stm32f429xx.o(.text)
    CAN1_SCE_IRQHandler                      0x08000359   Thumb Code     0  startup_stm32f429xx.o(.text)
    CAN1_TX_IRQHandler                       0x08000359   Thumb Code     0  startup_stm32f429xx.o(.text)
    CAN2_RX0_IRQHandler                      0x08000359   Thumb Code     0  startup_stm32f429xx.o(.text)
    CAN2_RX1_IRQHandler                      0x08000359   Thumb Code     0  startup_stm32f429xx.o(.text)
    CAN2_SCE_IRQHandler                      0x08000359   Thumb Code     0  startup_stm32f429xx.o(.text)
    CAN2_TX_IRQHandler                       0x08000359   Thumb Code     0  startup_stm32f429xx.o(.text)
    DCMI_IRQHandler                          0x08000359   Thumb Code     0  startup_stm32f429xx.o(.text)
    DMA1_Stream0_IRQHandler                  0x08000359   Thumb Code     0  startup_stm32f429xx.o(.text)
    DMA1_Stream1_IRQHandler                  0x08000359   Thumb Code     0  startup_stm32f429xx.o(.text)
    DMA1_Stream2_IRQHandler                  0x08000359   Thumb Code     0  startup_stm32f429xx.o(.text)
    DMA1_Stream3_IRQHandler                  0x08000359   Thumb Code     0  startup_stm32f429xx.o(.text)
    DMA1_Stream4_IRQHandler                  0x08000359   Thumb Code     0  startup_stm32f429xx.o(.text)
    DMA1_Stream5_IRQHandler                  0x08000359   Thumb Code     0  startup_stm32f429xx.o(.text)
    DMA1_Stream6_IRQHandler                  0x08000359   Thumb Code     0  startup_stm32f429xx.o(.text)
    DMA1_Stream7_IRQHandler                  0x08000359   Thumb Code     0  startup_stm32f429xx.o(.text)
    DMA2D_IRQHandler                         0x08000359   Thumb Code     0  startup_stm32f429xx.o(.text)
    DMA2_Stream0_IRQHandler                  0x08000359   Thumb Code     0  startup_stm32f429xx.o(.text)
    DMA2_Stream1_IRQHandler                  0x08000359   Thumb Code     0  startup_stm32f429xx.o(.text)
    DMA2_Stream2_IRQHandler                  0x08000359   Thumb Code     0  startup_stm32f429xx.o(.text)
    DMA2_Stream3_IRQHandler                  0x08000359   Thumb Code     0  startup_stm32f429xx.o(.text)
    DMA2_Stream4_IRQHandler                  0x08000359   Thumb Code     0  startup_stm32f429xx.o(.text)
    DMA2_Stream5_IRQHandler                  0x08000359   Thumb Code     0  startup_stm32f429xx.o(.text)
    DMA2_Stream6_IRQHandler                  0x08000359   Thumb Code     0  startup_stm32f429xx.o(.text)
    DMA2_Stream7_IRQHandler                  0x08000359   Thumb Code     0  startup_stm32f429xx.o(.text)
    ETH_IRQHandler                           0x08000359   Thumb Code     0  startup_stm32f429xx.o(.text)
    ETH_WKUP_IRQHandler                      0x08000359   Thumb Code     0  startup_stm32f429xx.o(.text)
    EXTI0_IRQHandler                         0x08000359   Thumb Code     0  startup_stm32f429xx.o(.text)
    EXTI15_10_IRQHandler                     0x08000359   Thumb Code     0  startup_stm32f429xx.o(.text)
    EXTI1_IRQHandler                         0x08000359   Thumb Code     0  startup_stm32f429xx.o(.text)
    EXTI2_IRQHandler                         0x08000359   Thumb Code     0  startup_stm32f429xx.o(.text)
    EXTI3_IRQHandler                         0x08000359   Thumb Code     0  startup_stm32f429xx.o(.text)
    EXTI4_IRQHandler                         0x08000359   Thumb Code     0  startup_stm32f429xx.o(.text)
    EXTI9_5_IRQHandler                       0x08000359   Thumb Code     0  startup_stm32f429xx.o(.text)
    FLASH_IRQHandler                         0x08000359   Thumb Code     0  startup_stm32f429xx.o(.text)
    FMC_IRQHandler                           0x08000359   Thumb Code     0  startup_stm32f429xx.o(.text)
    FPU_IRQHandler                           0x08000359   Thumb Code     0  startup_stm32f429xx.o(.text)
    HASH_RNG_IRQHandler                      0x08000359   Thumb Code     0  startup_stm32f429xx.o(.text)
    I2C1_ER_IRQHandler                       0x08000359   Thumb Code     0  startup_stm32f429xx.o(.text)
    I2C1_EV_IRQHandler                       0x08000359   Thumb Code     0  startup_stm32f429xx.o(.text)
    I2C2_ER_IRQHandler                       0x08000359   Thumb Code     0  startup_stm32f429xx.o(.text)
    I2C2_EV_IRQHandler                       0x08000359   Thumb Code     0  startup_stm32f429xx.o(.text)
    I2C3_ER_IRQHandler                       0x08000359   Thumb Code     0  startup_stm32f429xx.o(.text)
    I2C3_EV_IRQHandler                       0x08000359   Thumb Code     0  startup_stm32f429xx.o(.text)
    LTDC_ER_IRQHandler                       0x08000359   Thumb Code     0  startup_stm32f429xx.o(.text)
    LTDC_IRQHandler                          0x08000359   Thumb Code     0  startup_stm32f429xx.o(.text)
    OTG_FS_IRQHandler                        0x08000359   Thumb Code     0  startup_stm32f429xx.o(.text)
    OTG_FS_WKUP_IRQHandler                   0x08000359   Thumb Code     0  startup_stm32f429xx.o(.text)
    OTG_HS_EP1_IN_IRQHandler                 0x08000359   Thumb Code     0  startup_stm32f429xx.o(.text)
    OTG_HS_EP1_OUT_IRQHandler                0x08000359   Thumb Code     0  startup_stm32f429xx.o(.text)
    OTG_HS_IRQHandler                        0x08000359   Thumb Code     0  startup_stm32f429xx.o(.text)
    OTG_HS_WKUP_IRQHandler                   0x08000359   Thumb Code     0  startup_stm32f429xx.o(.text)
    PVD_IRQHandler                           0x08000359   Thumb Code     0  startup_stm32f429xx.o(.text)
    RCC_IRQHandler                           0x08000359   Thumb Code     0  startup_stm32f429xx.o(.text)
    RTC_Alarm_IRQHandler                     0x08000359   Thumb Code     0  startup_stm32f429xx.o(.text)
    RTC_WKUP_IRQHandler                      0x08000359   Thumb Code     0  startup_stm32f429xx.o(.text)
    SAI1_IRQHandler                          0x08000359   Thumb Code     0  startup_stm32f429xx.o(.text)
    SPI1_IRQHandler                          0x08000359   Thumb Code     0  startup_stm32f429xx.o(.text)
    SPI2_IRQHandler                          0x08000359   Thumb Code     0  startup_stm32f429xx.o(.text)
    SPI3_IRQHandler                          0x08000359   Thumb Code     0  startup_stm32f429xx.o(.text)
    SPI4_IRQHandler                          0x08000359   Thumb Code     0  startup_stm32f429xx.o(.text)
    SPI5_IRQHandler                          0x08000359   Thumb Code     0  startup_stm32f429xx.o(.text)
    SPI6_IRQHandler                          0x08000359   Thumb Code     0  startup_stm32f429xx.o(.text)
    TAMP_STAMP_IRQHandler                    0x08000359   Thumb Code     0  startup_stm32f429xx.o(.text)
    TIM1_BRK_TIM9_IRQHandler                 0x08000359   Thumb Code     0  startup_stm32f429xx.o(.text)
    TIM1_CC_IRQHandler                       0x08000359   Thumb Code     0  startup_stm32f429xx.o(.text)
    TIM1_TRG_COM_TIM11_IRQHandler            0x08000359   Thumb Code     0  startup_stm32f429xx.o(.text)
    TIM1_UP_TIM10_IRQHandler                 0x08000359   Thumb Code     0  startup_stm32f429xx.o(.text)
    TIM2_IRQHandler                          0x08000359   Thumb Code     0  startup_stm32f429xx.o(.text)
    TIM6_DAC_IRQHandler                      0x08000359   Thumb Code     0  startup_stm32f429xx.o(.text)
    TIM8_BRK_TIM12_IRQHandler                0x08000359   Thumb Code     0  startup_stm32f429xx.o(.text)
    TIM8_CC_IRQHandler                       0x08000359   Thumb Code     0  startup_stm32f429xx.o(.text)
    TIM8_TRG_COM_TIM14_IRQHandler            0x08000359   Thumb Code     0  startup_stm32f429xx.o(.text)
    TIM8_UP_TIM13_IRQHandler                 0x08000359   Thumb Code     0  startup_stm32f429xx.o(.text)
    UART4_IRQHandler                         0x08000359   Thumb Code     0  startup_stm32f429xx.o(.text)
    UART5_IRQHandler                         0x08000359   Thumb Code     0  startup_stm32f429xx.o(.text)
    UART7_IRQHandler                         0x08000359   Thumb Code     0  startup_stm32f429xx.o(.text)
    UART8_IRQHandler                         0x08000359   Thumb Code     0  startup_stm32f429xx.o(.text)
    USART2_IRQHandler                        0x08000359   Thumb Code     0  startup_stm32f429xx.o(.text)
    USART6_IRQHandler                        0x08000359   Thumb Code     0  startup_stm32f429xx.o(.text)
    WWDG_IRQHandler                          0x08000359   Thumb Code     0  startup_stm32f429xx.o(.text)
    __user_initial_stackheap                 0x0800035d   Thumb Code     0  startup_stm32f429xx.o(.text)
    __use_no_semihosting                     0x0800037d   Thumb Code     2  use_no_semi_2.o(.text)
    __aeabi_uldivmod                         0x0800037f   Thumb Code     0  lludivv7m.o(.text)
    _ll_udiv                                 0x0800037f   Thumb Code   238  lludivv7m.o(.text)
    __aeabi_ldivmod                          0x0800046d   Thumb Code     0  llsdiv.o(.text)
    _ll_sdiv                                 0x0800046d   Thumb Code    72  llsdiv.o(.text)
    vsprintf                                 0x080004b5   Thumb Code    32  vsprintf.o(.text)
    __2printf                                0x080004d9   Thumb Code    20  __2printf.o(.text)
    __2sprintf                               0x080004f1   Thumb Code    38  __2sprintf.o(.text)
    _printf_pre_padding                      0x0800051d   Thumb Code    44  _printf_pad.o(.text)
    _printf_post_padding                     0x08000549   Thumb Code    34  _printf_pad.o(.text)
    _printf_str                              0x0800056b   Thumb Code    82  _printf_str.o(.text)
    _printf_int_dec                          0x080005bd   Thumb Code   104  _printf_dec.o(.text)
    _printf_longlong_dec                     0x08000635   Thumb Code   108  _printf_longlong_dec.o(.text)
    _printf_longlong_hex                     0x080006b1   Thumb Code    86  _printf_hex_int_ll_ptr.o(.text)
    _printf_int_hex                          0x08000707   Thumb Code    28  _printf_hex_int_ll_ptr.o(.text)
    _printf_ll_hex                           0x08000723   Thumb Code    12  _printf_hex_int_ll_ptr.o(.text)
    _printf_hex_ptr                          0x0800072f   Thumb Code    18  _printf_hex_int_ll_ptr.o(.text)
    __printf                                 0x08000745   Thumb Code   388  __printf_flags_ss_wp.o(.text)
    strstr                                   0x080008cd   Thumb Code    36  strstr.o(.text)
    strcpy                                   0x080008f1   Thumb Code    72  strcpy.o(.text)
    strlen                                   0x08000939   Thumb Code    62  strlen.o(.text)
    strcat                                   0x08000977   Thumb Code    24  strcat.o(.text)
    __aeabi_memcpy                           0x0800098f   Thumb Code     0  rt_memcpy_v6.o(.text)
    __rt_memcpy                              0x0800098f   Thumb Code   138  rt_memcpy_v6.o(.text)
    _memcpy_lastbytes                        0x080009f5   Thumb Code     0  rt_memcpy_v6.o(.text)
    __aeabi_memclr                           0x08000a19   Thumb Code     0  rt_memclr.o(.text)
    __rt_memclr                              0x08000a19   Thumb Code    68  rt_memclr.o(.text)
    _memset                                  0x08000a1d   Thumb Code     0  rt_memclr.o(.text)
    strcmp                                   0x08000a5d   Thumb Code   128  strcmpv7m.o(.text)
    __use_two_region_memory                  0x08000add   Thumb Code     2  heapauxi.o(.text)
    __rt_heap_escrow$2region                 0x08000adf   Thumb Code     2  heapauxi.o(.text)
    __rt_heap_expand$2region                 0x08000ae1   Thumb Code     2  heapauxi.o(.text)
    __I$use$semihosting                      0x08000ae3   Thumb Code     0  use_no_semi.o(.text)
    __use_no_semihosting_swi                 0x08000ae3   Thumb Code     2  use_no_semi.o(.text)
    _ll_udiv10                               0x08000ae5   Thumb Code   138  lludiv10.o(.text)
    __read_errno                             0x08000b6f   Thumb Code    10  _rserrno.o(.text)
    __set_errno                              0x08000b79   Thumb Code    12  _rserrno.o(.text)
    _printf_truncate_signed                  0x08000b85   Thumb Code    18  _printf_truncate.o(.text)
    _printf_truncate_unsigned                0x08000b97   Thumb Code    18  _printf_truncate.o(.text)
    _printf_int_common                       0x08000ba9   Thumb Code   178  _printf_intcommon.o(.text)
    _printf_charcount                        0x08000c5b   Thumb Code    40  _printf_charcount.o(.text)
    _printf_char_common                      0x08000c8f   Thumb Code    32  _printf_char_common.o(.text)
    _sputc                                   0x08000cb5   Thumb Code    10  _sputc.o(.text)
    _printf_cs_common                        0x08000cbf   Thumb Code    20  _printf_char.o(.text)
    _printf_char                             0x08000cd3   Thumb Code    16  _printf_char.o(.text)
    _printf_string                           0x08000ce3   Thumb Code     8  _printf_char.o(.text)
    _printf_char_file                        0x08000ced   Thumb Code    32  _printf_char_file.o(.text)
    _printf_wctomb                           0x08000d11   Thumb Code   182  _printf_wctomb.o(.text)
    _printf_longlong_oct                     0x08000dcd   Thumb Code    68  _printf_oct_int_ll.o(.text)
    _printf_int_oct                          0x08000e11   Thumb Code    24  _printf_oct_int_ll.o(.text)
    _printf_ll_oct                           0x08000e29   Thumb Code    12  _printf_oct_int_ll.o(.text)
    __aeabi_memcpy4                          0x08000e3d   Thumb Code     0  rt_memcpy_w.o(.text)
    __aeabi_memcpy8                          0x08000e3d   Thumb Code     0  rt_memcpy_w.o(.text)
    __rt_memcpy_w                            0x08000e3d   Thumb Code   100  rt_memcpy_w.o(.text)
    _memcpy_lastbytes_aligned                0x08000e85   Thumb Code     0  rt_memcpy_w.o(.text)
    __aeabi_memclr4                          0x08000ea1   Thumb Code     0  rt_memclr_w.o(.text)
    __aeabi_memclr8                          0x08000ea1   Thumb Code     0  rt_memclr_w.o(.text)
    __rt_memclr_w                            0x08000ea1   Thumb Code    78  rt_memclr_w.o(.text)
    _memset_w                                0x08000ea5   Thumb Code     0  rt_memclr_w.o(.text)
    __aeabi_errno_addr                       0x08000ef1   Thumb Code     8  rt_errno_addr_intlibspace.o(.text)
    __errno$intlibspace                      0x08000ef1   Thumb Code     0  rt_errno_addr_intlibspace.o(.text)
    __rt_errno_addr$intlibspace              0x08000ef1   Thumb Code     0  rt_errno_addr_intlibspace.o(.text)
    __lib_sel_fp_printf                      0x08000ef9   Thumb Code     2  _printf_fp_dec.o(.text)
    _printf_fp_dec_real                      0x080010a7   Thumb Code   620  _printf_fp_dec.o(.text)
    _printf_fp_hex_real                      0x08001315   Thumb Code   754  _printf_fp_hex.o(.text)
    _printf_lcs_common                       0x08001611   Thumb Code    20  _printf_wchar.o(.text)
    _printf_wchar                            0x08001625   Thumb Code    16  _printf_wchar.o(.text)
    _printf_wstring                          0x08001635   Thumb Code     8  _printf_wchar.o(.text)
    ferror                                   0x0800163d   Thumb Code     8  ferror.o(.text)
    _wcrtomb                                 0x08001645   Thumb Code    64  _wcrtomb.o(.text)
    __user_libspace                          0x08001685   Thumb Code     8  libspace.o(.text)
    __user_perproc_libspace                  0x08001685   Thumb Code     0  libspace.o(.text)
    __user_perthread_libspace                0x08001685   Thumb Code     0  libspace.o(.text)
    __user_setup_stackheap                   0x0800168d   Thumb Code    74  sys_stackheap_outer.o(.text)
    __rt_ctype_table                         0x080016d9   Thumb Code    16  rt_ctype_table.o(.text)
    __rt_locale                              0x080016e9   Thumb Code     8  rt_locale_intlibspace.o(.text)
    _printf_fp_infnan                        0x080016f1   Thumb Code   112  _printf_fp_infnan.o(.text)
    _btod_etento                             0x08001771   Thumb Code   216  bigflt0.o(.text)
    exit                                     0x0800184d   Thumb Code    18  exit.o(.text)
    _btod_d2e                                0x0800185f   Thumb Code    62  btod.o(CL$$btod_d2e)
    _d2e_denorm_low                          0x0800189d   Thumb Code    70  btod.o(CL$$btod_d2e_denorm_low)
    _d2e_norm_op1                            0x080018e3   Thumb Code    96  btod.o(CL$$btod_d2e_norm_op1)
    __btod_div_common                        0x08001943   Thumb Code   696  btod.o(CL$$btod_div_common)
    _e2e                                     0x08001c7b   Thumb Code   198  btod.o(CL$$btod_e2e)
    _btod_ediv                               0x08001d41   Thumb Code    40  btod.o(CL$$btod_ediv)
    _btod_emul                               0x08001d69   Thumb Code    40  btod.o(CL$$btod_emul)
    __btod_mult_common                       0x08001d91   Thumb Code   580  btod.o(CL$$btod_mult_common)
    AT24CXX_Init                             0x08001fd5   Thumb Code     4  24cxx.o(i.AT24CXX_Init)
    AT24CXX_ReadLenByte                      0x08001fd9   Thumb Code    42  24cxx.o(i.AT24CXX_ReadLenByte)
    AT24CXX_ReadOneByte                      0x08002003   Thumb Code    66  24cxx.o(i.AT24CXX_ReadOneByte)
    AT24CXX_WriteLenByte                     0x08002045   Thumb Code    42  24cxx.o(i.AT24CXX_WriteLenByte)
    AT24CXX_WriteOneByte                     0x0800206f   Thumb Code    62  24cxx.o(i.AT24CXX_WriteOneByte)
    CT_IIC_Ack                               0x080020ad   Thumb Code    64  ctiic.o(i.CT_IIC_Ack)
    CT_IIC_Init                              0x080020f9   Thumb Code    58  ctiic.o(i.CT_IIC_Init)
    CT_IIC_NAck                              0x08002141   Thumb Code    64  ctiic.o(i.CT_IIC_NAck)
    CT_IIC_Read_Byte                         0x0800218d   Thumb Code   100  ctiic.o(i.CT_IIC_Read_Byte)
    CT_IIC_Send_Byte                         0x080021fd   Thumb Code    90  ctiic.o(i.CT_IIC_Send_Byte)
    CT_IIC_Start                             0x08002265   Thumb Code    62  ctiic.o(i.CT_IIC_Start)
    CT_IIC_Stop                              0x080022b1   Thumb Code    56  ctiic.o(i.CT_IIC_Stop)
    CT_IIC_Wait_Ack                          0x080022f5   Thumb Code    70  ctiic.o(i.CT_IIC_Wait_Ack)
    CmdError                                 0x08002349   Thumb Code    40  sdio_sdcard.o(i.CmdError)
    CmdResp1Error                            0x08002375   Thumb Code    66  sdio_sdcard.o(i.CmdResp1Error)
    CmdResp2Error                            0x080023c1   Thumb Code    66  sdio_sdcard.o(i.CmdResp2Error)
    CmdResp3Error                            0x08002409   Thumb Code    38  sdio_sdcard.o(i.CmdResp3Error)
    CmdResp6Error                            0x08002439   Thumb Code   108  sdio_sdcard.o(i.CmdResp6Error)
    CmdResp7Error                            0x080024ad   Thumb Code    60  sdio_sdcard.o(i.CmdResp7Error)
    FT5206_Init                              0x080024ed   Thumb Code   200  ft5206.o(i.FT5206_Init)
    FT5206_RD_Reg                            0x080025d1   Thumb Code    86  ft5206.o(i.FT5206_RD_Reg)
    FT5206_Scan                              0x08002629   Thumb Code   296  ft5206.o(i.FT5206_Scan)
    FT5206_WR_Reg                            0x08002761   Thumb Code    72  ft5206.o(i.FT5206_WR_Reg)
    FTL_BadBlockMark                         0x080027a9   Thumb Code    44  ftl.o(i.FTL_BadBlockMark)
    FTL_BlockCompare                         0x080027d9   Thumb Code   156  ftl.o(i.FTL_BlockCompare)
    FTL_CheckBadBlock                        0x080028a9   Thumb Code    70  ftl.o(i.FTL_CheckBadBlock)
    FTL_CopyAndWriteToBlock                  0x080028f5   Thumb Code   196  ftl.o(i.FTL_CopyAndWriteToBlock)
    FTL_CreateLUT                            0x080029bd   Thumb Code   170  ftl.o(i.FTL_CreateLUT)
    FTL_FindSamePlaneUnusedBlock             0x08002a85   Thumb Code    66  ftl.o(i.FTL_FindSamePlaneUnusedBlock)
    FTL_FindUnusedBlock                      0x08002ad1   Thumb Code    62  ftl.o(i.FTL_FindUnusedBlock)
    FTL_Format                               0x08002b15   Thumb Code   150  ftl.o(i.FTL_Format)
    FTL_Init                                 0x08002bd5   Thumb Code   106  ftl.o(i.FTL_Init)
    FTL_LBNToPBN                             0x08002cb5   Thumb Code    22  ftl.o(i.FTL_LBNToPBN)
    FTL_ReadSectors                          0x08002cd1   Thumb Code   266  ftl.o(i.FTL_ReadSectors)
    FTL_UsedBlockMark                        0x08002de1   Thumb Code    26  ftl.o(i.FTL_UsedBlockMark)
    FTL_WriteSectors                         0x08002e01   Thumb Code   274  ftl.o(i.FTL_WriteSectors)
    FindSCR                                  0x08002f19   Thumb Code   214  sdio_sdcard.o(i.FindSCR)
    GPIO_AF_Set                              0x08002ff9   Thumb Code    32  sys.o(i.GPIO_AF_Set)
    GPIO_Set                                 0x08003019   Thumb Code   128  sys.o(i.GPIO_Set)
    GT9147_Init                              0x08003099   Thumb Code   240  gt9147.o(i.GT9147_Init)
    GT9147_RD_Reg                            0x080031c5   Thumb Code    96  gt9147.o(i.GT9147_RD_Reg)
    GT9147_Scan                              0x08003225   Thumb Code   444  gt9147.o(i.GT9147_Scan)
    GT9147_Send_Cfg                          0x080033f1   Thumb Code    72  gt9147.o(i.GT9147_Send_Cfg)
    GT9147_WR_Reg                            0x0800343d   Thumb Code    82  gt9147.o(i.GT9147_WR_Reg)
    Get_HzMat                                0x08003491   Thumb Code   146  text.o(i.Get_HzMat)
    IIC_Ack                                  0x08003529   Thumb Code    56  myiic.o(i.IIC_Ack)
    IIC_Init                                 0x08003569   Thumb Code    44  myiic.o(i.IIC_Init)
    IIC_NAck                                 0x080035a1   Thumb Code    56  myiic.o(i.IIC_NAck)
    IIC_Read_Byte                            0x080035e1   Thumb Code    96  myiic.o(i.IIC_Read_Byte)
    IIC_Send_Byte                            0x08003649   Thumb Code    86  myiic.o(i.IIC_Send_Byte)
    IIC_Start                                0x080036a9   Thumb Code    56  myiic.o(i.IIC_Start)
    IIC_Stop                                 0x080036e9   Thumb Code    58  myiic.o(i.IIC_Stop)
    IIC_Wait_Ack                             0x0800372d   Thumb Code    74  myiic.o(i.IIC_Wait_Ack)
    INTX_DISABLE                             0x08003781   Thumb Code     4  sys.o(i.INTX_DISABLE)
    INTX_ENABLE                              0x08003785   Thumb Code     4  sys.o(i.INTX_ENABLE)
    IsCardProgramming                        0x08003789   Thumb Code   116  sdio_sdcard.o(i.IsCardProgramming)
    KEY_Init                                 0x08003809   Thumb Code    84  key.o(i.KEY_Init)
    KEY_Scan                                 0x0800386d   Thumb Code   144  key.o(i.KEY_Scan)
    LCD_Clear                                0x0800390d   Thumb Code    58  lcd.o(i.LCD_Clear)
    LCD_Display_Dir                          0x08003955   Thumb Code   234  lcd.o(i.LCD_Display_Dir)
    LCD_DrawLine                             0x08003a49   Thumb Code   150  lcd.o(i.LCD_DrawLine)
    LCD_DrawPoint                            0x08003ae1   Thumb Code    36  lcd.o(i.LCD_DrawPoint)
    LCD_DrawRectangle                        0x08003b11   Thumb Code    58  lcd.o(i.LCD_DrawRectangle)
    LCD_Draw_Circle                          0x08003b4b   Thumb Code   176  lcd.o(i.LCD_Draw_Circle)
    LCD_Fast_DrawPoint                       0x08003bfd   Thumb Code   236  lcd.o(i.LCD_Fast_DrawPoint)
    LCD_Fill                                 0x08003cf5   Thumb Code    86  lcd.o(i.LCD_Fill)
    LCD_Init                                 0x08003d55   Thumb Code  9410  lcd.o(i.LCD_Init)
    LCD_Pow                                  0x0800621d   Thumb Code    16  lcd.o(i.LCD_Pow)
    LCD_RD_DATA                              0x0800622d   Thumb Code    16  lcd.o(i.LCD_RD_DATA)
    LCD_SSD_BackLightSet                     0x08006241   Thumb Code    72  lcd.o(i.LCD_SSD_BackLightSet)
    LCD_Scan_Dir                             0x08006291   Thumb Code   434  lcd.o(i.LCD_Scan_Dir)
    LCD_SetCursor                            0x08006449   Thumb Code   254  lcd.o(i.LCD_SetCursor)
    LCD_ShowChar                             0x0800654d   Thumb Code   196  lcd.o(i.LCD_ShowChar)
    LCD_ShowNum                              0x08006629   Thumb Code   118  lcd.o(i.LCD_ShowNum)
    LCD_ShowString                           0x0800669f   Thumb Code    84  lcd.o(i.LCD_ShowString)
    LCD_WR_DATA                              0x080066f5   Thumb Code    20  lcd.o(i.LCD_WR_DATA)
    LCD_WR_REG                               0x0800670d   Thumb Code    20  lcd.o(i.LCD_WR_REG)
    LCD_WriteRAM_Prepare                     0x08006725   Thumb Code    10  lcd.o(i.LCD_WriteRAM_Prepare)
    LCD_WriteReg                             0x08006739   Thumb Code    10  lcd.o(i.LCD_WriteReg)
    LED_Init                                 0x08006749   Thumb Code    44  led.o(i.LED_Init)
    LTDC_Clear                               0x08006781   Thumb Code    28  ltdc.o(i.LTDC_Clear)
    LTDC_Clk_Set                             0x080067a1   Thumb Code   116  ltdc.o(i.LTDC_Clk_Set)
    LTDC_Display_Dir                         0x08006819   Thumb Code    34  ltdc.o(i.LTDC_Display_Dir)
    LTDC_Draw_Point                          0x08006841   Thumb Code    52  ltdc.o(i.LTDC_Draw_Point)
    LTDC_Fill                                0x0800687d   Thumb Code   154  ltdc.o(i.LTDC_Fill)
    LTDC_Init                                0x08006929   Thumb Code   720  ltdc.o(i.LTDC_Init)
    LTDC_Layer_Parameter_Config              0x08006c2d   Thumb Code    68  ltdc.o(i.LTDC_Layer_Parameter_Config)
    LTDC_Layer_Switch                        0x08006c75   Thumb Code    66  ltdc.o(i.LTDC_Layer_Switch)
    LTDC_Layer_Window_Config                 0x08006cbd   Thumb Code   222  ltdc.o(i.LTDC_Layer_Window_Config)
    LTDC_PanelID_Read                        0x08006da5   Thumb Code   128  ltdc.o(i.LTDC_PanelID_Read)
    LTDC_Switch                              0x08006e39   Thumb Code    28  ltdc.o(i.LTDC_Switch)
    MY_NVIC_Init                             0x08006e59   Thumb Code    74  sys.o(i.MY_NVIC_Init)
    MY_NVIC_PriorityGroupConfig              0x08006ea5   Thumb Code    26  sys.o(i.MY_NVIC_PriorityGroupConfig)
    MY_NVIC_SetVectorTable                   0x08006ec9   Thumb Code    12  sys.o(i.MY_NVIC_SetVectorTable)
    NAND_CopyPageWithWrite                   0x08006ed9   Thumb Code   406  nand.o(i.NAND_CopyPageWithWrite)
    NAND_CopyPageWithoutWrite                0x0800707d   Thumb Code   108  nand.o(i.NAND_CopyPageWithoutWrite)
    NAND_Delay                               0x080070f5   Thumb Code    16  nand.o(i.NAND_Delay)
    NAND_ECC_Correction                      0x08007105   Thumb Code   104  nand.o(i.NAND_ECC_Correction)
    NAND_ECC_Get_OE                          0x08007199   Thumb Code    48  nand.o(i.NAND_ECC_Get_OE)
    NAND_EraseBlock                          0x080071c9   Thumb Code    62  nand.o(i.NAND_EraseBlock)
    NAND_Init                                0x0800721d   Thumb Code   360  nand.o(i.NAND_Init)
    NAND_ModeSet                             0x080073a9   Thumb Code    42  nand.o(i.NAND_ModeSet)
    NAND_ReadID                              0x080073dd   Thumb Code    64  nand.o(i.NAND_ReadID)
    NAND_ReadPage                            0x08007425   Thumb Code   488  nand.o(i.NAND_ReadPage)
    NAND_ReadPageComp                        0x08007661   Thumb Code    94  nand.o(i.NAND_ReadPageComp)
    NAND_ReadSpare                           0x080076c9   Thumb Code    28  nand.o(i.NAND_ReadSpare)
    NAND_ReadStatus                          0x080076e9   Thumb Code    78  nand.o(i.NAND_ReadStatus)
    NAND_Reset                               0x0800773d   Thumb Code    24  nand.o(i.NAND_Reset)
    NAND_WaitForReady                        0x08007759   Thumb Code    34  nand.o(i.NAND_WaitForReady)
    NAND_WaitRB                              0x08007781   Thumb Code    56  nand.o(i.NAND_WaitRB)
    NAND_WritePage                           0x080077bd   Thumb Code   324  nand.o(i.NAND_WritePage)
    NAND_WritePageConst                      0x0800790d   Thumb Code    70  nand.o(i.NAND_WritePageConst)
    NAND_WriteSpare                          0x0800795d   Thumb Code    28  nand.o(i.NAND_WriteSpare)
    OTT2001A_Init                            0x0800797d   Thumb Code   134  ott2001a.o(i.OTT2001A_Init)
    OTT2001A_RD_Reg                          0x08007a21   Thumb Code    96  ott2001a.o(i.OTT2001A_RD_Reg)
    OTT2001A_Scan                            0x08007a81   Thumb Code   336  ott2001a.o(i.OTT2001A_Scan)
    OTT2001A_SensorControl                   0x08007bf5   Thumb Code    30  ott2001a.o(i.OTT2001A_SensorControl)
    OTT2001A_WR_Reg                          0x08007c13   Thumb Code    82  ott2001a.o(i.OTT2001A_WR_Reg)
    SDEnWideBus                              0x08007c65   Thumb Code    92  sdio_sdcard.o(i.SDEnWideBus)
    SDIO_Clock_Set                           0x08007cc9   Thumb Code    14  sdio_sdcard.o(i.SDIO_Clock_Set)
    SDIO_IRQHandler                          0x08007cdd   Thumb Code     4  sdio_sdcard.o(i.SDIO_IRQHandler)
    SDIO_Send_Cmd                            0x08007ce1   Thumb Code    30  sdio_sdcard.o(i.SDIO_Send_Cmd)
    SDIO_Send_Data_Cfg                       0x08007d05   Thumb Code    42  sdio_sdcard.o(i.SDIO_Send_Data_Cfg)
    SDRAM_Init                               0x08007d35   Thumb Code   622  sdram.o(i.SDRAM_Init)
    SDRAM_Send_Cmd                           0x08007fc1   Thumb Code    58  sdram.o(i.SDRAM_Send_Cmd)
    SD_DMA_Config                            0x08007ffd   Thumb Code    86  sdio_sdcard.o(i.SD_DMA_Config)
    SD_EnableWideBusOperation                0x0800805d   Thumb Code    60  sdio_sdcard.o(i.SD_EnableWideBusOperation)
    SD_GetCardInfo                           0x080080a1   Thumb Code   526  sdio_sdcard.o(i.SD_GetCardInfo)
    SD_Init                                  0x080082b9   Thumb Code   306  sdio_sdcard.o(i.SD_Init)
    SD_InitializeCards                       0x08008409   Thumb Code   206  sdio_sdcard.o(i.SD_InitializeCards)
    SD_PowerON                               0x080084e5   Thumb Code   284  sdio_sdcard.o(i.SD_PowerON)
    SD_ProcessIRQSrc                         0x08008611   Thumb Code   208  sdio_sdcard.o(i.SD_ProcessIRQSrc)
    SD_ReadBlocks                            0x080086e9   Thumb Code   438  sdio_sdcard.o(i.SD_ReadBlocks)
    SD_ReadDisk                              0x080088b5   Thumb Code   110  sdio_sdcard.o(i.SD_ReadDisk)
    SD_SelectDeselect                        0x0800892d   Thumb Code    22  sdio_sdcard.o(i.SD_SelectDeselect)
    SD_SetDeviceMode                         0x08008945   Thumb Code    20  sdio_sdcard.o(i.SD_SetDeviceMode)
    SD_WriteBlocks                           0x0800895d   Thumb Code   700  sdio_sdcard.o(i.SD_WriteBlocks)
    SD_WriteDisk                             0x08008c25   Thumb Code   104  sdio_sdcard.o(i.SD_WriteDisk)
    SPI5_Init                                0x08008c95   Thumb Code   124  spi.o(i.SPI5_Init)
    SPI5_ReadWriteByte                       0x08008d1d   Thumb Code    22  spi.o(i.SPI5_ReadWriteByte)
    SPI5_SetSpeed                            0x08008d39   Thumb Code    34  spi.o(i.SPI5_SetSpeed)
    Show_Font                                0x08008d61   Thumb Code   160  text.o(i.Show_Font)
    Show_Str                                 0x08008e09   Thumb Code   174  text.o(i.Show_Str)
    Show_Str_Mid                             0x08008eb9   Thumb Code    82  text.o(i.Show_Str_Mid)
    Stm32_Clock_Init                         0x08008f11   Thumb Code    64  sys.o(i.Stm32_Clock_Init)
    Sys_Clock_Set                            0x08008f5d   Thumb Code   194  sys.o(i.Sys_Clock_Set)
    TIM3_IRQHandler                          0x08009031   Thumb Code    36  timer.o(i.TIM3_IRQHandler)
    TIM4_IRQHandler                          0x0800905d   Thumb Code    44  usmart.o(i.TIM4_IRQHandler)
    TIM5_IRQHandler                          0x08009091   Thumb Code   132  timer.o(i.TIM5_IRQHandler)
    TIM7_IRQHandler                          0x08009121   Thumb Code    40  timer.o(i.TIM7_IRQHandler)
    TIM7_Int_Init                            0x08009151   Thumb Code    62  timer.o(i.TIM7_Int_Init)
    TP_Adj_Info_Show                         0x08009199   Thumb Code   326  touch.o(i.TP_Adj_Info_Show)
    TP_Adjust                                0x08009311   Thumb Code  1336  touch.o(i.TP_Adjust)
    TP_Drow_Touch_Point                      0x08009879   Thumb Code   106  touch.o(i.TP_Drow_Touch_Point)
    TP_Get_Adjdata                           0x080098e9   Thumb Code   130  touch.o(i.TP_Get_Adjdata)
    TP_Init                                  0x08009975   Thumb Code   262  touch.o(i.TP_Init)
    TP_Read_AD                               0x08009aa1   Thumb Code   128  touch.o(i.TP_Read_AD)
    TP_Read_XOY                              0x08009b2d   Thumb Code    96  touch.o(i.TP_Read_XOY)
    TP_Read_XY                               0x08009b8d   Thumb Code    34  touch.o(i.TP_Read_XY)
    TP_Read_XY2                              0x08009bb5   Thumb Code   124  touch.o(i.TP_Read_XY2)
    TP_Save_Adjdata                          0x08009c31   Thumb Code   110  touch.o(i.TP_Save_Adjdata)
    TP_Scan                                  0x08009ca9   Thumb Code   184  touch.o(i.TP_Scan)
    TP_Write_Byte                            0x08009d69   Thumb Code    62  touch.o(i.TP_Write_Byte)
    Timer4_Init                              0x08009db1   Thumb Code    54  usmart.o(i.Timer4_Init)
    USART1_IRQHandler                        0x08009df1   Thumb Code    76  usart.o(i.USART1_IRQHandler)
    USART3_IRQHandler                        0x08009e49   Thumb Code    78  usart3.o(i.USART3_IRQHandler)
    W25QXX_Erase_Sector                      0x08009ea9   Thumb Code    90  w25qxx.o(i.W25QXX_Erase_Sector)
    W25QXX_Init                              0x08009f15   Thumb Code    90  w25qxx.o(i.W25QXX_Init)
    W25QXX_Read                              0x08009f81   Thumb Code    94  w25qxx.o(i.W25QXX_Read)
    W25QXX_ReadID                            0x08009fe9   Thumb Code    62  w25qxx.o(i.W25QXX_ReadID)
    W25QXX_ReadSR                            0x0800a02d   Thumb Code    52  w25qxx.o(i.W25QXX_ReadSR)
    W25QXX_Wait_Busy                         0x0800a065   Thumb Code    14  w25qxx.o(i.W25QXX_Wait_Busy)
    W25QXX_Write                             0x0800a073   Thumb Code   166  w25qxx.o(i.W25QXX_Write)
    W25QXX_Write_Enable                      0x0800a119   Thumb Code    26  w25qxx.o(i.W25QXX_Write_Enable)
    W25QXX_Write_NoCheck                     0x0800a139   Thumb Code    62  w25qxx.o(i.W25QXX_Write_NoCheck)
    W25QXX_Write_Page                        0x0800a179   Thumb Code   100  w25qxx.o(i.W25QXX_Write_Page)
    __ARM_fpclassify                         0x0800a1e5   Thumb Code    48  fpclassify.o(i.__ARM_fpclassify)
    __hardfp_sqrt                            0x0800a215   Thumb Code   122  sqrt.o(i.__hardfp_sqrt)
    _is_digit                                0x0800a28f   Thumb Code    14  __printf_wp.o(i._is_digit)
    _sys_exit                                0x0800a29d   Thumb Code     2  usart.o(i._sys_exit)
    atk_8266_apsta_test                      0x0800a2a1   Thumb Code  1928  apsta.o(i.atk_8266_apsta_test)
    atk_8266_at_response                     0x0800aa91   Thumb Code    38  common.o(i.atk_8266_at_response)
    atk_8266_check_cmd                       0x0800aac5   Thumb Code    30  common.o(i.atk_8266_check_cmd)
    atk_8266_consta_check                    0x0800aaed   Thumb Code    32  common.o(i.atk_8266_consta_check)
    atk_8266_get_ip                          0x0800ab2d   Thumb Code   240  common.o(i.atk_8266_get_ip)
    atk_8266_get_keynum                      0x0800ac6d   Thumb Code   192  common.o(i.atk_8266_get_keynum)
    atk_8266_get_wanip                       0x0800ad35   Thumb Code    54  common.o(i.atk_8266_get_wanip)
    atk_8266_ip_set                          0x0800ad85   Thumb Code   346  common.o(i.atk_8266_ip_set)
    atk_8266_key_staset                      0x0800af19   Thumb Code   150  common.o(i.atk_8266_key_staset)
    atk_8266_load_keyboard                   0x0800afb5   Thumb Code   258  common.o(i.atk_8266_load_keyboard)
    atk_8266_mode_cofig                      0x0800b0c1   Thumb Code   320  common.o(i.atk_8266_mode_cofig)
    atk_8266_msg_show                        0x0800b321   Thumb Code   614  common.o(i.atk_8266_msg_show)
    atk_8266_mtest_ui                        0x0800b64d   Thumb Code   156  common.o(i.atk_8266_mtest_ui)
    atk_8266_netpro_sel                      0x0800b745   Thumb Code   454  common.o(i.atk_8266_netpro_sel)
    atk_8266_quit_trans                      0x0800b979   Thumb Code    68  common.o(i.atk_8266_quit_trans)
    atk_8266_send_cmd                        0x0800b9c9   Thumb Code    84  common.o(i.atk_8266_send_cmd)
    atk_8266_send_data                       0x0800ba35   Thumb Code    76  common.o(i.atk_8266_send_data)
    atk_8266_test                            0x0800ba89   Thumb Code   322  common.o(i.atk_8266_test)
    atk_8266_wifiap_test                     0x0800bc89   Thumb Code  1822  wifiap.o(i.atk_8266_wifiap_test)
    atk_8266_wificonf_show                   0x0800c3e5   Thumb Code   200  common.o(i.atk_8266_wificonf_show)
    atk_8266_wifista_test                    0x0800c4cd   Thumb Code  1886  wifista.o(i.atk_8266_wifista_test)
    delay_init                               0x0800d209   Thumb Code    32  delay.o(i.delay_init)
    delay_ms                                 0x0800d22d   Thumb Code    52  delay.o(i.delay_ms)
    delay_us                                 0x0800d261   Thumb Code    36  delay.o(i.delay_us)
    delay_xms                                0x0800d289   Thumb Code    36  delay.o(i.delay_xms)
    disk_initialize                          0x0800d903   Thumb Code    40  diskio.o(i.disk_initialize)
    disk_ioctl                               0x0800d92d   Thumb Code   156  diskio.o(i.disk_ioctl)
    disk_read                                0x0800d9d1   Thumb Code   102  diskio.o(i.disk_read)
    disk_status                              0x0800da37   Thumb Code     4  diskio.o(i.disk_status)
    disk_write                               0x0800da3b   Thumb Code   102  diskio.o(i.disk_write)
    exfuns_init                              0x0800daa1   Thumb Code    92  exfuns.o(i.exfuns_init)
    f_close                                  0x0800db05   Thumb Code    30  ff.o(i.f_close)
    f_mount                                  0x0800db25   Thumb Code    72  ff.o(i.f_mount)
    f_open                                   0x0800db71   Thumb Code   626  ff.o(i.f_open)
    f_read                                   0x0800dde3   Thumb Code   374  ff.o(i.f_read)
    f_sync                                   0x0800df59   Thumb Code   338  ff.o(i.f_sync)
    ff_convert                               0x0800e0ad   Thumb Code   106  mycc936.o(i.ff_convert)
    ff_memalloc                              0x0800e11d   Thumb Code     8  diskio.o(i.ff_memalloc)
    ff_memfree                               0x0800e125   Thumb Code     8  diskio.o(i.ff_memfree)
    ff_wtoupper                              0x0800e12d   Thumb Code    28  mycc936.o(i.ff_wtoupper)
    font_init                                0x0800e615   Thumb Code    58  fontupd.o(i.font_init)
    fputc                                    0x0800e655   Thumb Code    14  usart.o(i.fputc)
    fupd_prog                                0x0800e669   Thumb Code   120  fontupd.o(i.fupd_prog)
    get_fattime                              0x0800e89f   Thumb Code     4  diskio.o(i.get_fattime)
    main                                     0x0800ea5d   Thumb Code   398  test.o(i.main)
    my_mem_free                              0x0800ecd9   Thumb Code    80  malloc.o(i.my_mem_free)
    my_mem_init                              0x0800ed31   Thumb Code    36  malloc.o(i.my_mem_init)
    my_mem_malloc                            0x0800ed5d   Thumb Code   128  malloc.o(i.my_mem_malloc)
    my_mem_perused                           0x0800ede5   Thumb Code    50  malloc.o(i.my_mem_perused)
    myfree                                   0x0800ee21   Thumb Code    20  malloc.o(i.myfree)
    mymalloc                                 0x0800ee39   Thumb Code    28  malloc.o(i.mymalloc)
    mymemset                                 0x0800ee59   Thumb Code    12  malloc.o(i.mymemset)
    read_addr                                0x0800efcb   Thumb Code     4  usmart.o(i.read_addr)
    u3_printf                                0x0800f2a5   Thumb Code    56  usart3.o(i.u3_printf)
    uart_init                                0x0800f2e5   Thumb Code   202  usart.o(i.uart_init)
    updata_fontx                             0x0800f3c1   Thumb Code   232  fontupd.o(i.updata_fontx)
    update_font                              0x0800f4b1   Thumb Code   402  fontupd.o(i.update_font)
    usart3_init                              0x0800f661   Thumb Code   224  usart3.o(i.usart3_init)
    usmart_cmd_rec                           0x0800f759   Thumb Code   144  usmart.o(i.usmart_cmd_rec)
    usmart_exe                               0x0800f7ed   Thumb Code   510  usmart.o(i.usmart_exe)
    usmart_get_aparm                         0x0800fa4d   Thumb Code   164  usmart_str.o(i.usmart_get_aparm)
    usmart_get_cmdname                       0x0800faf1   Thumb Code    46  usmart_str.o(i.usmart_get_cmdname)
    usmart_get_fname                         0x0800fb21   Thumb Code   352  usmart_str.o(i.usmart_get_fname)
    usmart_get_fparam                        0x0800fc89   Thumb Code   202  usmart_str.o(i.usmart_get_fparam)
    usmart_get_parmpos                       0x0800fd59   Thumb Code    30  usmart_str.o(i.usmart_get_parmpos)
    usmart_get_runtime                       0x0800fd7d   Thumb Code    38  usmart.o(i.usmart_get_runtime)
    usmart_init                              0x0800fdad   Thumb Code    36  usmart.o(i.usmart_init)
    usmart_pow                               0x0800fdd5   Thumb Code    16  usmart_str.o(i.usmart_pow)
    usmart_reset_runtime                     0x0800fde5   Thumb Code    36  usmart.o(i.usmart_reset_runtime)
    usmart_scan                              0x0800fe11   Thumb Code    94  usmart.o(i.usmart_scan)
    usmart_search_nextc                      0x0800feb5   Thumb Code    16  usmart_str.o(i.usmart_search_nextc)
    usmart_str2num                           0x0800fec5   Thumb Code   214  usmart_str.o(i.usmart_str2num)
    usmart_strcmp                            0x0800ff9b   Thumb Code    24  usmart_str.o(i.usmart_strcmp)
    usmart_strcopy                           0x0800ffb3   Thumb Code    18  usmart_str.o(i.usmart_strcopy)
    usmart_strlen                            0x0800ffc5   Thumb Code    18  usmart_str.o(i.usmart_strlen)
    usmart_sys_cmd_exe                       0x0800ffd9   Thumb Code  1458  usmart.o(i.usmart_sys_cmd_exe)
    write_addr                               0x0801068b   Thumb Code     4  usmart.o(i.write_addr)
    _get_lc_numeric                          0x08010701   Thumb Code    44  lc_numeric_c.o(locale$$code)
    _get_lc_ctype                            0x0801072d   Thumb Code    44  lc_ctype_c.o(locale$$code)
    __aeabi_dadd                             0x08010759   Thumb Code     0  daddsub_clz.o(x$fpl$dadd)
    _dadd                                    0x08010759   Thumb Code   332  daddsub_clz.o(x$fpl$dadd)
    __fpl_dcmp_Inf                           0x080108a9   Thumb Code    24  dcmpi.o(x$fpl$dcmpinf)
    __aeabi_d2uiz                            0x080108c1   Thumb Code     0  dfixu.o(x$fpl$dfixu)
    _dfixu                                   0x080108c1   Thumb Code    90  dfixu.o(x$fpl$dfixu)
    __aeabi_ui2d                             0x0801091b   Thumb Code     0  dflt_clz.o(x$fpl$dfltu)
    _dfltu                                   0x0801091b   Thumb Code    38  dflt_clz.o(x$fpl$dfltu)
    __aeabi_cdcmple                          0x08010941   Thumb Code     0  dleqf.o(x$fpl$dleqf)
    _dcmple                                  0x08010941   Thumb Code   120  dleqf.o(x$fpl$dleqf)
    __fpl_dcmple_InfNaN                      0x080109a3   Thumb Code     0  dleqf.o(x$fpl$dleqf)
    __aeabi_dmul                             0x080109b9   Thumb Code     0  dmul.o(x$fpl$dmul)
    _dmul                                    0x080109b9   Thumb Code   332  dmul.o(x$fpl$dmul)
    __fpl_dnaninf                            0x08010b0d   Thumb Code   156  dnaninf.o(x$fpl$dnaninf)
    __fpl_dretinf                            0x08010ba9   Thumb Code    12  dretinf.o(x$fpl$dretinf)
    __aeabi_cdrcmple                         0x08010bb5   Thumb Code     0  drleqf.o(x$fpl$drleqf)
    _drcmple                                 0x08010bb5   Thumb Code   108  drleqf.o(x$fpl$drleqf)
    __aeabi_drsub                            0x08010c21   Thumb Code     0  daddsub_clz.o(x$fpl$drsb)
    _drsb                                    0x08010c21   Thumb Code    22  daddsub_clz.o(x$fpl$drsb)
    _dsqrt                                   0x08010c39   Thumb Code   404  dsqrt_umaal.o(x$fpl$dsqrt)
    __aeabi_dsub                             0x08010dd1   Thumb Code     0  daddsub_clz.o(x$fpl$dsub)
    _dsub                                    0x08010dd1   Thumb Code   464  daddsub_clz.o(x$fpl$dsub)
    __aeabi_f2d                              0x08010fa5   Thumb Code     0  f2d.o(x$fpl$f2d)
    _f2d                                     0x08010fa5   Thumb Code    86  f2d.o(x$fpl$f2d)
    __fpl_fnaninf                            0x08010ffb   Thumb Code   140  fnaninf.o(x$fpl$fnaninf)
    _fp_init                                 0x08011087   Thumb Code    10  fpinit.o(x$fpl$fpinit)
    __fplib_config_fpu_vfp                   0x0801108f   Thumb Code     0  fpinit.o(x$fpl$fpinit)
    __fplib_config_pureend_doubles           0x0801108f   Thumb Code     0  fpinit.o(x$fpl$fpinit)
    _printf_fp_dec                           0x08011091   Thumb Code     4  printf1.o(x$fpl$printf1)
    _printf_fp_hex                           0x08011095   Thumb Code     4  printf2.o(x$fpl$printf2)
    __I$use$fp                               0x08011098   Number         0  usenofp.o(x$fpl$usenofp)
    asc2_1206                                0x08011098   Data        1140  lcd.o(.constdata)
    asc2_1608                                0x0801150c   Data        1520  lcd.o(.constdata)
    asc2_2412                                0x08011afc   Data        3420  lcd.o(.constdata)
    asc2_3216                                0x08012858   Data       12160  lcd.o(.constdata)
    FT5206_TPX_TBL                           0x080157d8   Data          10  ft5206.o(.constdata)
    GT9147_CFG_TBL                           0x080157e2   Data         184  gt9147.o(.constdata)
    GT9147_TPX_TBL                           0x0801589a   Data          10  gt9147.o(.constdata)
    OTT_TPX_TBL                              0x080158a4   Data          10  ott2001a.o(.constdata)
    TP_REMIND_MSG_TBL                        0x080158b0   Data           4  touch.o(.constdata)
    memtblsize                               0x080158b4   Data          12  malloc.o(.constdata)
    memblksize                               0x080158c0   Data          12  malloc.o(.constdata)
    memsize                                  0x080158cc   Data          12  malloc.o(.constdata)
    GBK_PATH                                 0x08015ce4   Data          20  fontupd.o(.constdata)
    UPDATE_REMIND_TBL                        0x08015cf8   Data          20  fontupd.o(.constdata)
    Region$$Table$$Base                      0x08016108   Number         0  anon$$obj.o(Region$$Table)
    Region$$Table$$Limit                     0x08016128   Number         0  anon$$obj.o(Region$$Table)
    __ctype                                  0x08016151   Data           0  lc_ctype_c.o(locale$$data)
    mem3base                                 0x10000000   Data       61440  malloc.o(.ARM.__AT_0x10000000)
    mem3mapbase                              0x1000f000   Data        3840  malloc.o(.ARM.__AT_0x1000F000)
    USART_RX_STA                             0x20000004   Data           2  usart.o(.data)
    __stdout                                 0x20000008   Data           4  usart.o(.data)
    POINT_COLOR                              0x20000010   Data           4  lcd.o(.data)
    BACK_COLOR                               0x20000014   Data           4  lcd.o(.data)
    ltdc_framebuf                            0x20000018   Data           8  ltdc.o(.data)
    TransferError                            0x20000023   Data           1  sdio_sdcard.o(.data)
    TransferEnd                              0x20000024   Data           1  sdio_sdcard.o(.data)
    TIM5CH1_CAPTURE_STA                      0x2000002c   Data           1  timer.o(.data)
    TIM5CH1_CAPTURE_VAL                      0x20000030   Data           4  timer.o(.data)
    CMD_RDX                                  0x20000038   Data           1  touch.o(.data)
    CMD_RDY                                  0x20000039   Data           1  touch.o(.data)
    tp_dev                                   0x2000003c   Data          52  touch.o(.data)
    W25QXX_TYPE                              0x20000070   Data           2  w25qxx.o(.data)
    USART3_RX_STA                            0x20000078   Data           2  usart3.o(.data)
    mallco_dev                               0x2000007c   Data          36  malloc.o(.data)
    file                                     0x200000a0   Data           4  exfuns.o(.data)
    ftemp                                    0x200000a4   Data           4  exfuns.o(.data)
    fatbuf                                   0x200000a8   Data           4  exfuns.o(.data)
    sys_cmd_tab                              0x200000b0   Data          28  usmart.o(.data)
    usmart_nametab                           0x200000cc   Data          32  usmart_config.o(.data)
    usmart_dev                               0x200000ec   Data         244  usmart_config.o(.data)
    portnum                                  0x200001e4   Data           4  common.o(.data)
    wifiap_ssid                              0x200001e8   Data           4  common.o(.data)
    wifiap_password                          0x200001ec   Data           4  common.o(.data)
    kbd_fn_tbl                               0x200001f0   Data           8  common.o(.data)
    ATK_ESP8266_CWMODE_TBL                   0x200001f8   Data          12  common.o(.data)
    ATK_ESP8266_ECN_TBL                      0x20000204   Data          20  common.o(.data)
    kbd_tbl                                  0x20000218   Data          52  common.o(.data)
    wifista_ssid                             0x2000024c   Data           4  common.o(.data)
    wifista_encryption                       0x20000250   Data           4  common.o(.data)
    wifista_password                         0x20000254   Data           4  common.o(.data)
    wifiap_encryption                        0x20000258   Data           4  common.o(.data)
    ATK_ESP8266_WORKMODE_TBL                 0x2000025c   Data          12  common.o(.data)
    netpro                                   0x20000268   Data           1  wifista.o(.data)
    USART_RX_BUF                             0x2000026c   Data         200  usart.o(.bss)
    lcddev                                   0x20000334   Data          14  lcd.o(.bss)
    lcdltdc                                  0x20000344   Data          32  ltdc.o(.bss)
    SDCardInfo                               0x20000388   Data          88  sdio_sdcard.o(.bss)
    SDIO_DATA_BUFFER                         0x200003e0   Data         512  sdio_sdcard.o(.bss)
    nand_dev                                 0x200005e0   Data          92  nand.o(.bss)
    USART3_TX_BUF                            0x20000640   Data         800  usart3.o(.bss)
    USART3_RX_BUF                            0x20000960   Data         800  usart3.o(.bss)
    mem1base                                 0x20000c80   Data       163840  malloc.o(.bss)
    mem1mapbase                              0x20028c80   Data       10240  malloc.o(.bss)
    fs                                       0x2002b480   Data          12  exfuns.o(.bss)
    ftinfo                                   0x2002b498   Data          41  fontupd.o(.bss)
    __libspace_start                         0x2002b4c4   Data          96  libspace.o(.bss)
    __temporary_stack_top$libspace           0x2002b524   Data           0  libspace.o(.bss)
    ltdc_lcd_framebuf                        0xc0000000   Data       2048000  ltdc.o(.ARM.__AT_0xC0000000)
    mem2base                                 0xc01f4000   Data       29605888  malloc.o(.ARM.__AT_0xC01F4000)
    mem2mapbase                              0xc1e30000   Data       1850368  malloc.o(.ARM.__AT_0xC1E30000)



==============================================================================

Memory Map of the image

  Image Entry point : 0x080001ad

  Load Region LR_IROM1 (Base: 0x08000000, Size: 0x000164c0, Max: 0x00100000, ABSOLUTE, COMPRESSED[0x00016338])

    Execution Region ER_IROM1 (Exec base: 0x08000000, Load base: 0x08000000, Size: 0x00016254, Max: 0x00100000, ABSOLUTE)

    Exec Addr    Load Addr    Size         Type   Attr      Idx    E Section Name        Object

    0x08000000   0x08000000   0x000001ac   Data   RO            3    RESET               startup_stm32f429xx.o
    0x080001ac   0x080001ac   0x00000008   Code   RO         3487  * !!!main             c_w.l(__main.o)
    0x080001b4   0x080001b4   0x00000034   Code   RO         3819    !!!scatter          c_w.l(__scatter.o)
    0x080001e8   0x080001e8   0x0000005a   Code   RO         3817    !!dczerorl2         c_w.l(__dczerorl2.o)
    0x08000242   0x08000242   0x00000002   PAD
    0x08000244   0x08000244   0x0000001c   Code   RO         3821    !!handler_zi        c_w.l(__scatter_zi.o)
    0x08000260   0x08000260   0x00000000   Code   RO         3469    .ARM.Collect$$_printf_percent$$00000000  c_w.l(_printf_percent.o)
    0x08000260   0x08000260   0x00000006   Code   RO         3559    .ARM.Collect$$_printf_percent$$00000001  c_w.l(_printf_n.o)
    0x08000266   0x08000266   0x00000006   Code   RO         3560    .ARM.Collect$$_printf_percent$$00000002  c_w.l(_printf_p.o)
    0x0800026c   0x0800026c   0x00000006   Code   RO         3563    .ARM.Collect$$_printf_percent$$00000003  c_w.l(_printf_f.o)
    0x08000272   0x08000272   0x00000006   Code   RO         3564    .ARM.Collect$$_printf_percent$$00000004  c_w.l(_printf_e.o)
    0x08000278   0x08000278   0x00000006   Code   RO         3565    .ARM.Collect$$_printf_percent$$00000005  c_w.l(_printf_g.o)
    0x0800027e   0x0800027e   0x00000006   Code   RO         3566    .ARM.Collect$$_printf_percent$$00000006  c_w.l(_printf_a.o)
    0x08000284   0x08000284   0x0000000a   Code   RO         3570    .ARM.Collect$$_printf_percent$$00000007  c_w.l(_printf_ll.o)
    0x0800028e   0x0800028e   0x00000006   Code   RO         3562    .ARM.Collect$$_printf_percent$$00000008  c_w.l(_printf_i.o)
    0x08000294   0x08000294   0x00000006   Code   RO         3467    .ARM.Collect$$_printf_percent$$00000009  c_w.l(_printf_d.o)
    0x0800029a   0x0800029a   0x00000006   Code   RO         3468    .ARM.Collect$$_printf_percent$$0000000A  c_w.l(_printf_u.o)
    0x080002a0   0x080002a0   0x00000006   Code   RO         3561    .ARM.Collect$$_printf_percent$$0000000B  c_w.l(_printf_o.o)
    0x080002a6   0x080002a6   0x00000006   Code   RO         3466    .ARM.Collect$$_printf_percent$$0000000C  c_w.l(_printf_x.o)
    0x080002ac   0x080002ac   0x00000006   Code   RO         3568    .ARM.Collect$$_printf_percent$$0000000D  c_w.l(_printf_lli.o)
    0x080002b2   0x080002b2   0x00000006   Code   RO         3470    .ARM.Collect$$_printf_percent$$0000000E  c_w.l(_printf_lld.o)
    0x080002b8   0x080002b8   0x00000006   Code   RO         3569    .ARM.Collect$$_printf_percent$$0000000F  c_w.l(_printf_llu.o)
    0x080002be   0x080002be   0x00000006   Code   RO         3574    .ARM.Collect$$_printf_percent$$00000010  c_w.l(_printf_llo.o)
    0x080002c4   0x080002c4   0x00000006   Code   RO         3575    .ARM.Collect$$_printf_percent$$00000011  c_w.l(_printf_llx.o)
    0x080002ca   0x080002ca   0x0000000a   Code   RO         3571    .ARM.Collect$$_printf_percent$$00000012  c_w.l(_printf_l.o)
    0x080002d4   0x080002d4   0x00000006   Code   RO         3464    .ARM.Collect$$_printf_percent$$00000013  c_w.l(_printf_c.o)
    0x080002da   0x080002da   0x00000006   Code   RO         3465    .ARM.Collect$$_printf_percent$$00000014  c_w.l(_printf_s.o)
    0x080002e0   0x080002e0   0x00000006   Code   RO         3572    .ARM.Collect$$_printf_percent$$00000015  c_w.l(_printf_lc.o)
    0x080002e6   0x080002e6   0x00000006   Code   RO         3573    .ARM.Collect$$_printf_percent$$00000016  c_w.l(_printf_ls.o)
    0x080002ec   0x080002ec   0x00000004   Code   RO         3567    .ARM.Collect$$_printf_percent$$00000017  c_w.l(_printf_percent_end.o)
    0x080002f0   0x080002f0   0x00000002   Code   RO         3689    .ARM.Collect$$libinit$$00000000  c_w.l(libinit.o)
    0x080002f2   0x080002f2   0x00000004   Code   RO         3705    .ARM.Collect$$libinit$$00000001  c_w.l(libinit2.o)
    0x080002f6   0x080002f6   0x00000000   Code   RO         3708    .ARM.Collect$$libinit$$00000004  c_w.l(libinit2.o)
    0x080002f6   0x080002f6   0x00000000   Code   RO         3711    .ARM.Collect$$libinit$$0000000A  c_w.l(libinit2.o)
    0x080002f6   0x080002f6   0x00000000   Code   RO         3713    .ARM.Collect$$libinit$$0000000C  c_w.l(libinit2.o)
    0x080002f6   0x080002f6   0x00000000   Code   RO         3715    .ARM.Collect$$libinit$$0000000E  c_w.l(libinit2.o)
    0x080002f6   0x080002f6   0x00000006   Code   RO         3716    .ARM.Collect$$libinit$$0000000F  c_w.l(libinit2.o)
    0x080002fc   0x080002fc   0x00000000   Code   RO         3718    .ARM.Collect$$libinit$$00000011  c_w.l(libinit2.o)
    0x080002fc   0x080002fc   0x0000000c   Code   RO         3719    .ARM.Collect$$libinit$$00000012  c_w.l(libinit2.o)
    0x08000308   0x08000308   0x00000000   Code   RO         3720    .ARM.Collect$$libinit$$00000013  c_w.l(libinit2.o)
    0x08000308   0x08000308   0x00000000   Code   RO         3722    .ARM.Collect$$libinit$$00000015  c_w.l(libinit2.o)
    0x08000308   0x08000308   0x0000000a   Code   RO         3723    .ARM.Collect$$libinit$$00000016  c_w.l(libinit2.o)
    0x08000312   0x08000312   0x00000000   Code   RO         3724    .ARM.Collect$$libinit$$00000017  c_w.l(libinit2.o)
    0x08000312   0x08000312   0x00000000   Code   RO         3726    .ARM.Collect$$libinit$$00000019  c_w.l(libinit2.o)
    0x08000312   0x08000312   0x00000000   Code   RO         3728    .ARM.Collect$$libinit$$0000001B  c_w.l(libinit2.o)
    0x08000312   0x08000312   0x00000000   Code   RO         3730    .ARM.Collect$$libinit$$0000001D  c_w.l(libinit2.o)
    0x08000312   0x08000312   0x00000000   Code   RO         3732    .ARM.Collect$$libinit$$0000001F  c_w.l(libinit2.o)
    0x08000312   0x08000312   0x00000000   Code   RO         3734    .ARM.Collect$$libinit$$00000021  c_w.l(libinit2.o)
    0x08000312   0x08000312   0x00000000   Code   RO         3736    .ARM.Collect$$libinit$$00000023  c_w.l(libinit2.o)
    0x08000312   0x08000312   0x00000000   Code   RO         3738    .ARM.Collect$$libinit$$00000025  c_w.l(libinit2.o)
    0x08000312   0x08000312   0x00000000   Code   RO         3742    .ARM.Collect$$libinit$$0000002C  c_w.l(libinit2.o)
    0x08000312   0x08000312   0x00000000   Code   RO         3744    .ARM.Collect$$libinit$$0000002E  c_w.l(libinit2.o)
    0x08000312   0x08000312   0x00000000   Code   RO         3746    .ARM.Collect$$libinit$$00000030  c_w.l(libinit2.o)
    0x08000312   0x08000312   0x00000000   Code   RO         3748    .ARM.Collect$$libinit$$00000032  c_w.l(libinit2.o)
    0x08000312   0x08000312   0x00000002   Code   RO         3749    .ARM.Collect$$libinit$$00000033  c_w.l(libinit2.o)
    0x08000314   0x08000314   0x00000002   Code   RO         3773    .ARM.Collect$$libshutdown$$00000000  c_w.l(libshutdown.o)
    0x08000316   0x08000316   0x00000000   Code   RO         3799    .ARM.Collect$$libshutdown$$00000002  c_w.l(libshutdown2.o)
    0x08000316   0x08000316   0x00000000   Code   RO         3801    .ARM.Collect$$libshutdown$$00000004  c_w.l(libshutdown2.o)
    0x08000316   0x08000316   0x00000000   Code   RO         3804    .ARM.Collect$$libshutdown$$00000007  c_w.l(libshutdown2.o)
    0x08000316   0x08000316   0x00000000   Code   RO         3807    .ARM.Collect$$libshutdown$$0000000A  c_w.l(libshutdown2.o)
    0x08000316   0x08000316   0x00000000   Code   RO         3809    .ARM.Collect$$libshutdown$$0000000C  c_w.l(libshutdown2.o)
    0x08000316   0x08000316   0x00000000   Code   RO         3812    .ARM.Collect$$libshutdown$$0000000F  c_w.l(libshutdown2.o)
    0x08000316   0x08000316   0x00000002   Code   RO         3813    .ARM.Collect$$libshutdown$$00000010  c_w.l(libshutdown2.o)
    0x08000318   0x08000318   0x00000000   Code   RO         3527    .ARM.Collect$$rtentry$$00000000  c_w.l(__rtentry.o)
    0x08000318   0x08000318   0x00000000   Code   RO         3600    .ARM.Collect$$rtentry$$00000002  c_w.l(__rtentry2.o)
    0x08000318   0x08000318   0x00000006   Code   RO         3612    .ARM.Collect$$rtentry$$00000004  c_w.l(__rtentry4.o)
    0x0800031e   0x0800031e   0x00000000   Code   RO         3602    .ARM.Collect$$rtentry$$00000009  c_w.l(__rtentry2.o)
    0x0800031e   0x0800031e   0x00000004   Code   RO         3603    .ARM.Collect$$rtentry$$0000000A  c_w.l(__rtentry2.o)
    0x08000322   0x08000322   0x00000000   Code   RO         3605    .ARM.Collect$$rtentry$$0000000C  c_w.l(__rtentry2.o)
    0x08000322   0x08000322   0x00000008   Code   RO         3606    .ARM.Collect$$rtentry$$0000000D  c_w.l(__rtentry2.o)
    0x0800032a   0x0800032a   0x00000002   Code   RO         3694    .ARM.Collect$$rtexit$$00000000  c_w.l(rtexit.o)
    0x0800032c   0x0800032c   0x00000000   Code   RO         3751    .ARM.Collect$$rtexit$$00000002  c_w.l(rtexit2.o)
    0x0800032c   0x0800032c   0x00000004   Code   RO         3752    .ARM.Collect$$rtexit$$00000003  c_w.l(rtexit2.o)
    0x08000330   0x08000330   0x00000006   Code   RO         3753    .ARM.Collect$$rtexit$$00000004  c_w.l(rtexit2.o)
    0x08000336   0x08000336   0x00000002   PAD
    0x08000338   0x08000338   0x00000044   Code   RO            4    .text               startup_stm32f429xx.o
    0x0800037c   0x0800037c   0x00000002   Code   RO         3397    .text               c_w.l(use_no_semi_2.o)
    0x0800037e   0x0800037e   0x000000ee   Code   RO         3399    .text               c_w.l(lludivv7m.o)
    0x0800046c   0x0800046c   0x00000048   Code   RO         3401    .text               c_w.l(llsdiv.o)
    0x080004b4   0x080004b4   0x00000024   Code   RO         3403    .text               c_w.l(vsprintf.o)
    0x080004d8   0x080004d8   0x00000018   Code   RO         3405    .text               c_w.l(__2printf.o)
    0x080004f0   0x080004f0   0x0000002c   Code   RO         3407    .text               c_w.l(__2sprintf.o)
    0x0800051c   0x0800051c   0x0000004e   Code   RO         3415    .text               c_w.l(_printf_pad.o)
    0x0800056a   0x0800056a   0x00000052   Code   RO         3417    .text               c_w.l(_printf_str.o)
    0x080005bc   0x080005bc   0x00000078   Code   RO         3419    .text               c_w.l(_printf_dec.o)
    0x08000634   0x08000634   0x0000007c   Code   RO         3421    .text               c_w.l(_printf_longlong_dec.o)
    0x080006b0   0x080006b0   0x00000094   Code   RO         3441    .text               c_w.l(_printf_hex_int_ll_ptr.o)
    0x08000744   0x08000744   0x00000188   Code   RO         3461    .text               c_w.l(__printf_flags_ss_wp.o)
    0x080008cc   0x080008cc   0x00000024   Code   RO         3471    .text               c_w.l(strstr.o)
    0x080008f0   0x080008f0   0x00000048   Code   RO         3473    .text               c_w.l(strcpy.o)
    0x08000938   0x08000938   0x0000003e   Code   RO         3475    .text               c_w.l(strlen.o)
    0x08000976   0x08000976   0x00000018   Code   RO         3477    .text               c_w.l(strcat.o)
    0x0800098e   0x0800098e   0x0000008a   Code   RO         3479    .text               c_w.l(rt_memcpy_v6.o)
    0x08000a18   0x08000a18   0x00000044   Code   RO         3481    .text               c_w.l(rt_memclr.o)
    0x08000a5c   0x08000a5c   0x00000080   Code   RO         3483    .text               c_w.l(strcmpv7m.o)
    0x08000adc   0x08000adc   0x00000006   Code   RO         3485    .text               c_w.l(heapauxi.o)
    0x08000ae2   0x08000ae2   0x00000002   Code   RO         3525    .text               c_w.l(use_no_semi.o)
    0x08000ae4   0x08000ae4   0x0000008a   Code   RO         3532    .text               c_w.l(lludiv10.o)
    0x08000b6e   0x08000b6e   0x00000016   Code   RO         3534    .text               c_w.l(_rserrno.o)
    0x08000b84   0x08000b84   0x00000024   Code   RO         3536    .text               c_w.l(_printf_truncate.o)
    0x08000ba8   0x08000ba8   0x000000b2   Code   RO         3538    .text               c_w.l(_printf_intcommon.o)
    0x08000c5a   0x08000c5a   0x00000028   Code   RO         3540    .text               c_w.l(_printf_charcount.o)
    0x08000c82   0x08000c82   0x00000002   PAD
    0x08000c84   0x08000c84   0x00000030   Code   RO         3542    .text               c_w.l(_printf_char_common.o)
    0x08000cb4   0x08000cb4   0x0000000a   Code   RO         3544    .text               c_w.l(_sputc.o)
    0x08000cbe   0x08000cbe   0x0000002c   Code   RO         3546    .text               c_w.l(_printf_char.o)
    0x08000cea   0x08000cea   0x00000002   PAD
    0x08000cec   0x08000cec   0x00000024   Code   RO         3548    .text               c_w.l(_printf_char_file.o)
    0x08000d10   0x08000d10   0x000000bc   Code   RO         3550    .text               c_w.l(_printf_wctomb.o)
    0x08000dcc   0x08000dcc   0x00000070   Code   RO         3557    .text               c_w.l(_printf_oct_int_ll.o)
    0x08000e3c   0x08000e3c   0x00000064   Code   RO         3576    .text               c_w.l(rt_memcpy_w.o)
    0x08000ea0   0x08000ea0   0x0000004e   Code   RO         3578    .text               c_w.l(rt_memclr_w.o)
    0x08000eee   0x08000eee   0x00000002   PAD
    0x08000ef0   0x08000ef0   0x00000008   Code   RO         3619    .text               c_w.l(rt_errno_addr_intlibspace.o)
    0x08000ef8   0x08000ef8   0x0000041a   Code   RO         3621    .text               c_w.l(_printf_fp_dec.o)
    0x08001312   0x08001312   0x00000002   PAD
    0x08001314   0x08001314   0x000002fc   Code   RO         3623    .text               c_w.l(_printf_fp_hex.o)
    0x08001610   0x08001610   0x0000002c   Code   RO         3628    .text               c_w.l(_printf_wchar.o)
    0x0800163c   0x0800163c   0x00000008   Code   RO         3630    .text               c_w.l(ferror.o)
    0x08001644   0x08001644   0x00000040   Code   RO         3634    .text               c_w.l(_wcrtomb.o)
    0x08001684   0x08001684   0x00000008   Code   RO         3636    .text               c_w.l(libspace.o)
    0x0800168c   0x0800168c   0x0000004a   Code   RO         3639    .text               c_w.l(sys_stackheap_outer.o)
    0x080016d6   0x080016d6   0x00000002   PAD
    0x080016d8   0x080016d8   0x00000010   Code   RO         3641    .text               c_w.l(rt_ctype_table.o)
    0x080016e8   0x080016e8   0x00000008   Code   RO         3646    .text               c_w.l(rt_locale_intlibspace.o)
    0x080016f0   0x080016f0   0x00000080   Code   RO         3648    .text               c_w.l(_printf_fp_infnan.o)
    0x08001770   0x08001770   0x000000dc   Code   RO         3650    .text               c_w.l(bigflt0.o)
    0x0800184c   0x0800184c   0x00000012   Code   RO         3678    .text               c_w.l(exit.o)
    0x0800185e   0x0800185e   0x0000003e   Code   RO         3653    CL$$btod_d2e        c_w.l(btod.o)
    0x0800189c   0x0800189c   0x00000046   Code   RO         3655    CL$$btod_d2e_denorm_low  c_w.l(btod.o)
    0x080018e2   0x080018e2   0x00000060   Code   RO         3654    CL$$btod_d2e_norm_op1  c_w.l(btod.o)
    0x08001942   0x08001942   0x00000338   Code   RO         3663    CL$$btod_div_common  c_w.l(btod.o)
    0x08001c7a   0x08001c7a   0x000000c6   Code   RO         3660    CL$$btod_e2e        c_w.l(btod.o)
    0x08001d40   0x08001d40   0x00000028   Code   RO         3657    CL$$btod_ediv       c_w.l(btod.o)
    0x08001d68   0x08001d68   0x00000028   Code   RO         3656    CL$$btod_emul       c_w.l(btod.o)
    0x08001d90   0x08001d90   0x00000244   Code   RO         3662    CL$$btod_mult_common  c_w.l(btod.o)
    0x08001fd4   0x08001fd4   0x00000004   Code   RO          436    i.AT24CXX_Init      24cxx.o
    0x08001fd8   0x08001fd8   0x0000002a   Code   RO          438    i.AT24CXX_ReadLenByte  24cxx.o
    0x08002002   0x08002002   0x00000042   Code   RO          439    i.AT24CXX_ReadOneByte  24cxx.o
    0x08002044   0x08002044   0x0000002a   Code   RO          441    i.AT24CXX_WriteLenByte  24cxx.o
    0x0800206e   0x0800206e   0x0000003e   Code   RO          442    i.AT24CXX_WriteOneByte  24cxx.o
    0x080020ac   0x080020ac   0x0000004c   Code   RO         1255    i.CT_IIC_Ack        ctiic.o
    0x080020f8   0x080020f8   0x00000048   Code   RO         1256    i.CT_IIC_Init       ctiic.o
    0x08002140   0x08002140   0x0000004c   Code   RO         1257    i.CT_IIC_NAck       ctiic.o
    0x0800218c   0x0800218c   0x00000070   Code   RO         1258    i.CT_IIC_Read_Byte  ctiic.o
    0x080021fc   0x080021fc   0x00000068   Code   RO         1259    i.CT_IIC_Send_Byte  ctiic.o
    0x08002264   0x08002264   0x0000004c   Code   RO         1260    i.CT_IIC_Start      ctiic.o
    0x080022b0   0x080022b0   0x00000044   Code   RO         1261    i.CT_IIC_Stop       ctiic.o
    0x080022f4   0x080022f4   0x00000054   Code   RO         1262    i.CT_IIC_Wait_Ack   ctiic.o
    0x08002348   0x08002348   0x0000002c   Code   RO          883    i.CmdError          sdio_sdcard.o
    0x08002374   0x08002374   0x0000004c   Code   RO          884    i.CmdResp1Error     sdio_sdcard.o
    0x080023c0   0x080023c0   0x00000048   Code   RO          885    i.CmdResp2Error     sdio_sdcard.o
    0x08002408   0x08002408   0x00000030   Code   RO          886    i.CmdResp3Error     sdio_sdcard.o
    0x08002438   0x08002438   0x00000074   Code   RO          887    i.CmdResp6Error     sdio_sdcard.o
    0x080024ac   0x080024ac   0x00000040   Code   RO          888    i.CmdResp7Error     sdio_sdcard.o
    0x080024ec   0x080024ec   0x000000e4   Code   RO         1329    i.FT5206_Init       ft5206.o
    0x080025d0   0x080025d0   0x00000056   Code   RO         1330    i.FT5206_RD_Reg     ft5206.o
    0x08002626   0x08002626   0x00000002   PAD
    0x08002628   0x08002628   0x00000138   Code   RO         1331    i.FT5206_Scan       ft5206.o
    0x08002760   0x08002760   0x00000048   Code   RO         1332    i.FT5206_WR_Reg     ft5206.o
    0x080027a8   0x080027a8   0x00000030   Code   RO         1699    i.FTL_BadBlockMark  ftl.o
    0x080027d8   0x080027d8   0x000000d0   Code   RO         1700    i.FTL_BlockCompare  ftl.o
    0x080028a8   0x080028a8   0x0000004c   Code   RO         1701    i.FTL_CheckBadBlock  ftl.o
    0x080028f4   0x080028f4   0x000000c8   Code   RO         1702    i.FTL_CopyAndWriteToBlock  ftl.o
    0x080029bc   0x080029bc   0x000000c8   Code   RO         1703    i.FTL_CreateLUT     ftl.o
    0x08002a84   0x08002a84   0x0000004c   Code   RO         1704    i.FTL_FindSamePlaneUnusedBlock  ftl.o
    0x08002ad0   0x08002ad0   0x00000044   Code   RO         1705    i.FTL_FindUnusedBlock  ftl.o
    0x08002b14   0x08002b14   0x000000c0   Code   RO         1706    i.FTL_Format        ftl.o
    0x08002bd4   0x08002bd4   0x000000e0   Code   RO         1707    i.FTL_Init          ftl.o
    0x08002cb4   0x08002cb4   0x0000001c   Code   RO         1708    i.FTL_LBNToPBN      ftl.o
    0x08002cd0   0x08002cd0   0x00000110   Code   RO         1709    i.FTL_ReadSectors   ftl.o
    0x08002de0   0x08002de0   0x00000020   Code   RO         1711    i.FTL_UsedBlockMark  ftl.o
    0x08002e00   0x08002e00   0x00000118   Code   RO         1712    i.FTL_WriteSectors  ftl.o
    0x08002f18   0x08002f18   0x000000e0   Code   RO          889    i.FindSCR           sdio_sdcard.o
    0x08002ff8   0x08002ff8   0x00000020   Code   RO          210    i.GPIO_AF_Set       sys.o
    0x08003018   0x08003018   0x00000080   Code   RO          211    i.GPIO_Set          sys.o
    0x08003098   0x08003098   0x0000012c   Code   RO         1375    i.GT9147_Init       gt9147.o
    0x080031c4   0x080031c4   0x00000060   Code   RO         1376    i.GT9147_RD_Reg     gt9147.o
    0x08003224   0x08003224   0x000001cc   Code   RO         1377    i.GT9147_Scan       gt9147.o
    0x080033f0   0x080033f0   0x0000004c   Code   RO         1378    i.GT9147_Send_Cfg   gt9147.o
    0x0800343c   0x0800343c   0x00000052   Code   RO         1379    i.GT9147_WR_Reg     gt9147.o
    0x0800348e   0x0800348e   0x00000002   PAD
    0x08003490   0x08003490   0x00000098   Code   RO         2939    i.Get_HzMat         text.o
    0x08003528   0x08003528   0x00000040   Code   RO          366    i.IIC_Ack           myiic.o
    0x08003568   0x08003568   0x00000038   Code   RO          367    i.IIC_Init          myiic.o
    0x080035a0   0x080035a0   0x00000040   Code   RO          368    i.IIC_NAck          myiic.o
    0x080035e0   0x080035e0   0x00000068   Code   RO          369    i.IIC_Read_Byte     myiic.o
    0x08003648   0x08003648   0x00000060   Code   RO          370    i.IIC_Send_Byte     myiic.o
    0x080036a8   0x080036a8   0x00000040   Code   RO          371    i.IIC_Start         myiic.o
    0x080036e8   0x080036e8   0x00000044   Code   RO          372    i.IIC_Stop          myiic.o
    0x0800372c   0x0800372c   0x00000054   Code   RO          373    i.IIC_Wait_Ack      myiic.o
    0x08003780   0x08003780   0x00000004   Code   RO          212    i.INTX_DISABLE      sys.o
    0x08003784   0x08003784   0x00000004   Code   RO          213    i.INTX_ENABLE       sys.o
    0x08003788   0x08003788   0x00000080   Code   RO          890    i.IsCardProgramming  sdio_sdcard.o
    0x08003808   0x08003808   0x00000064   Code   RO          504    i.KEY_Init          key.o
    0x0800386c   0x0800386c   0x000000a0   Code   RO          505    i.KEY_Scan          key.o
    0x0800390c   0x0800390c   0x00000048   Code   RO          536    i.LCD_Clear         lcd.o
    0x08003954   0x08003954   0x000000f4   Code   RO          540    i.LCD_Display_Dir   lcd.o
    0x08003a48   0x08003a48   0x00000096   Code   RO          541    i.LCD_DrawLine      lcd.o
    0x08003ade   0x08003ade   0x00000002   PAD
    0x08003ae0   0x08003ae0   0x00000030   Code   RO          542    i.LCD_DrawPoint     lcd.o
    0x08003b10   0x08003b10   0x0000003a   Code   RO          543    i.LCD_DrawRectangle  lcd.o
    0x08003b4a   0x08003b4a   0x000000b0   Code   RO          544    i.LCD_Draw_Circle   lcd.o
    0x08003bfa   0x08003bfa   0x00000002   PAD
    0x08003bfc   0x08003bfc   0x000000f8   Code   RO          545    i.LCD_Fast_DrawPoint  lcd.o
    0x08003cf4   0x08003cf4   0x00000060   Code   RO          546    i.LCD_Fill          lcd.o
    0x08003d54   0x08003d54   0x000024c8   Code   RO          547    i.LCD_Init          lcd.o
    0x0800621c   0x0800621c   0x00000010   Code   RO          548    i.LCD_Pow           lcd.o
    0x0800622c   0x0800622c   0x00000014   Code   RO          549    i.LCD_RD_DATA       lcd.o
    0x08006240   0x08006240   0x00000050   Code   RO          552    i.LCD_SSD_BackLightSet  lcd.o
    0x08006290   0x08006290   0x000001b8   Code   RO          553    i.LCD_Scan_Dir      lcd.o
    0x08006448   0x08006448   0x00000104   Code   RO          554    i.LCD_SetCursor     lcd.o
    0x0800654c   0x0800654c   0x000000dc   Code   RO          556    i.LCD_ShowChar      lcd.o
    0x08006628   0x08006628   0x00000076   Code   RO          557    i.LCD_ShowNum       lcd.o
    0x0800669e   0x0800669e   0x00000054   Code   RO          558    i.LCD_ShowString    lcd.o
    0x080066f2   0x080066f2   0x00000002   PAD
    0x080066f4   0x080066f4   0x00000018   Code   RO          560    i.LCD_WR_DATA       lcd.o
    0x0800670c   0x0800670c   0x00000018   Code   RO          561    i.LCD_WR_REG        lcd.o
    0x08006724   0x08006724   0x00000014   Code   RO          563    i.LCD_WriteRAM_Prepare  lcd.o
    0x08006738   0x08006738   0x00000010   Code   RO          564    i.LCD_WriteReg      lcd.o
    0x08006748   0x08006748   0x00000038   Code   RO          859    i.LED_Init          led.o
    0x08006780   0x08006780   0x00000020   Code   RO          751    i.LTDC_Clear        ltdc.o
    0x080067a0   0x080067a0   0x00000078   Code   RO          752    i.LTDC_Clk_Set      ltdc.o
    0x08006818   0x08006818   0x00000028   Code   RO          754    i.LTDC_Display_Dir  ltdc.o
    0x08006840   0x08006840   0x0000003c   Code   RO          755    i.LTDC_Draw_Point   ltdc.o
    0x0800687c   0x0800687c   0x000000ac   Code   RO          756    i.LTDC_Fill         ltdc.o
    0x08006928   0x08006928   0x00000304   Code   RO          757    i.LTDC_Init         ltdc.o
    0x08006c2c   0x08006c2c   0x00000048   Code   RO          758    i.LTDC_Layer_Parameter_Config  ltdc.o
    0x08006c74   0x08006c74   0x00000048   Code   RO          759    i.LTDC_Layer_Switch  ltdc.o
    0x08006cbc   0x08006cbc   0x000000e8   Code   RO          760    i.LTDC_Layer_Window_Config  ltdc.o
    0x08006da4   0x08006da4   0x00000094   Code   RO          761    i.LTDC_PanelID_Read  ltdc.o
    0x08006e38   0x08006e38   0x00000020   Code   RO          764    i.LTDC_Switch       ltdc.o
    0x08006e58   0x08006e58   0x0000004a   Code   RO          214    i.MY_NVIC_Init      sys.o
    0x08006ea2   0x08006ea2   0x00000002   PAD
    0x08006ea4   0x08006ea4   0x00000024   Code   RO          215    i.MY_NVIC_PriorityGroupConfig  sys.o
    0x08006ec8   0x08006ec8   0x00000010   Code   RO          216    i.MY_NVIC_SetVectorTable  sys.o
    0x08006ed8   0x08006ed8   0x000001a4   Code   RO         1808    i.NAND_CopyPageWithWrite  nand.o
    0x0800707c   0x0800707c   0x00000078   Code   RO         1809    i.NAND_CopyPageWithoutWrite  nand.o
    0x080070f4   0x080070f4   0x00000010   Code   RO         1810    i.NAND_Delay        nand.o
    0x08007104   0x08007104   0x00000094   Code   RO         1811    i.NAND_ECC_Correction  nand.o
    0x08007198   0x08007198   0x00000030   Code   RO         1812    i.NAND_ECC_Get_OE   nand.o
    0x080071c8   0x080071c8   0x00000054   Code   RO         1813    i.NAND_EraseBlock   nand.o
    0x0800721c   0x0800721c   0x0000018c   Code   RO         1815    i.NAND_Init         nand.o
    0x080073a8   0x080073a8   0x00000034   Code   RO         1816    i.NAND_ModeSet      nand.o
    0x080073dc   0x080073dc   0x00000048   Code   RO         1817    i.NAND_ReadID       nand.o
    0x08007424   0x08007424   0x0000023c   Code   RO         1818    i.NAND_ReadPage     nand.o
    0x08007660   0x08007660   0x00000068   Code   RO         1819    i.NAND_ReadPageComp  nand.o
    0x080076c8   0x080076c8   0x00000020   Code   RO         1820    i.NAND_ReadSpare    nand.o
    0x080076e8   0x080076e8   0x00000054   Code   RO         1821    i.NAND_ReadStatus   nand.o
    0x0800773c   0x0800773c   0x0000001c   Code   RO         1822    i.NAND_Reset        nand.o
    0x08007758   0x08007758   0x00000028   Code   RO         1823    i.NAND_WaitForReady  nand.o
    0x08007780   0x08007780   0x0000003c   Code   RO         1824    i.NAND_WaitRB       nand.o
    0x080077bc   0x080077bc   0x00000150   Code   RO         1825    i.NAND_WritePage    nand.o
    0x0800790c   0x0800790c   0x00000050   Code   RO         1826    i.NAND_WritePageConst  nand.o
    0x0800795c   0x0800795c   0x00000020   Code   RO         1827    i.NAND_WriteSpare   nand.o
    0x0800797c   0x0800797c   0x000000a4   Code   RO         1427    i.OTT2001A_Init     ott2001a.o
    0x08007a20   0x08007a20   0x00000060   Code   RO         1428    i.OTT2001A_RD_Reg   ott2001a.o
    0x08007a80   0x08007a80   0x00000174   Code   RO         1429    i.OTT2001A_Scan     ott2001a.o
    0x08007bf4   0x08007bf4   0x0000001e   Code   RO         1430    i.OTT2001A_SensorControl  ott2001a.o
    0x08007c12   0x08007c12   0x00000052   Code   RO         1431    i.OTT2001A_WR_Reg   ott2001a.o
    0x08007c64   0x08007c64   0x00000064   Code   RO          891    i.SDEnWideBus       sdio_sdcard.o
    0x08007cc8   0x08007cc8   0x00000014   Code   RO          892    i.SDIO_Clock_Set    sdio_sdcard.o
    0x08007cdc   0x08007cdc   0x00000004   Code   RO          893    i.SDIO_IRQHandler   sdio_sdcard.o
    0x08007ce0   0x08007ce0   0x00000024   Code   RO          894    i.SDIO_Send_Cmd     sdio_sdcard.o
    0x08007d04   0x08007d04   0x00000030   Code   RO          895    i.SDIO_Send_Data_Cfg  sdio_sdcard.o
    0x08007d34   0x08007d34   0x0000028c   Code   RO         1085    i.SDRAM_Init        sdram.o
    0x08007fc0   0x08007fc0   0x0000003a   Code   RO         1086    i.SDRAM_Send_Cmd    sdram.o
    0x08007ffa   0x08007ffa   0x00000002   PAD
    0x08007ffc   0x08007ffc   0x00000060   Code   RO          896    i.SD_DMA_Config     sdio_sdcard.o
    0x0800805c   0x0800805c   0x00000044   Code   RO          897    i.SD_EnableWideBusOperation  sdio_sdcard.o
    0x080080a0   0x080080a0   0x00000218   Code   RO          898    i.SD_GetCardInfo    sdio_sdcard.o
    0x080082b8   0x080082b8   0x00000150   Code   RO          900    i.SD_Init           sdio_sdcard.o
    0x08008408   0x08008408   0x000000dc   Code   RO          901    i.SD_InitializeCards  sdio_sdcard.o
    0x080084e4   0x080084e4   0x0000012c   Code   RO          903    i.SD_PowerON        sdio_sdcard.o
    0x08008610   0x08008610   0x000000d8   Code   RO          904    i.SD_ProcessIRQSrc  sdio_sdcard.o
    0x080086e8   0x080086e8   0x000001cc   Code   RO          905    i.SD_ReadBlocks     sdio_sdcard.o
    0x080088b4   0x080088b4   0x00000078   Code   RO          906    i.SD_ReadDisk       sdio_sdcard.o
    0x0800892c   0x0800892c   0x00000016   Code   RO          907    i.SD_SelectDeselect  sdio_sdcard.o
    0x08008942   0x08008942   0x00000002   PAD
    0x08008944   0x08008944   0x00000018   Code   RO          909    i.SD_SetDeviceMode  sdio_sdcard.o
    0x0800895c   0x0800895c   0x000002c8   Code   RO          910    i.SD_WriteBlocks    sdio_sdcard.o
    0x08008c24   0x08008c24   0x00000070   Code   RO          911    i.SD_WriteDisk      sdio_sdcard.o
    0x08008c94   0x08008c94   0x00000088   Code   RO         1128    i.SPI5_Init         spi.o
    0x08008d1c   0x08008d1c   0x0000001c   Code   RO         1129    i.SPI5_ReadWriteByte  spi.o
    0x08008d38   0x08008d38   0x00000028   Code   RO         1130    i.SPI5_SetSpeed     spi.o
    0x08008d60   0x08008d60   0x000000a8   Code   RO         2940    i.Show_Font         text.o
    0x08008e08   0x08008e08   0x000000ae   Code   RO         2941    i.Show_Str          text.o
    0x08008eb6   0x08008eb6   0x00000002   PAD
    0x08008eb8   0x08008eb8   0x00000058   Code   RO         2942    i.Show_Str_Mid      text.o
    0x08008f10   0x08008f10   0x0000004c   Code   RO          217    i.Stm32_Clock_Init  sys.o
    0x08008f5c   0x08008f5c   0x000000d4   Code   RO          218    i.Sys_Clock_Set     sys.o
    0x08009030   0x08009030   0x0000002c   Code   RO         1181    i.TIM3_IRQHandler   timer.o
    0x0800905c   0x0800905c   0x00000034   Code   RO         2981    i.TIM4_IRQHandler   usmart.o
    0x08009090   0x08009090   0x00000090   Code   RO         1185    i.TIM5_IRQHandler   timer.o
    0x08009120   0x08009120   0x00000030   Code   RO         1186    i.TIM7_IRQHandler   timer.o
    0x08009150   0x08009150   0x00000048   Code   RO         1187    i.TIM7_Int_Init     timer.o
    0x08009198   0x08009198   0x00000178   Code   RO         1479    i.TP_Adj_Info_Show  touch.o
    0x08009310   0x08009310   0x00000568   Code   RO         1480    i.TP_Adjust         touch.o
    0x08009878   0x08009878   0x00000070   Code   RO         1482    i.TP_Drow_Touch_Point  touch.o
    0x080098e8   0x080098e8   0x0000008c   Code   RO         1483    i.TP_Get_Adjdata    touch.o
    0x08009974   0x08009974   0x0000012c   Code   RO         1484    i.TP_Init           touch.o
    0x08009aa0   0x08009aa0   0x0000008c   Code   RO         1485    i.TP_Read_AD        touch.o
    0x08009b2c   0x08009b2c   0x00000060   Code   RO         1486    i.TP_Read_XOY       touch.o
    0x08009b8c   0x08009b8c   0x00000028   Code   RO         1487    i.TP_Read_XY        touch.o
    0x08009bb4   0x08009bb4   0x0000007c   Code   RO         1488    i.TP_Read_XY2       touch.o
    0x08009c30   0x08009c30   0x00000078   Code   RO         1489    i.TP_Save_Adjdata   touch.o
    0x08009ca8   0x08009ca8   0x000000c0   Code   RO         1490    i.TP_Scan           touch.o
    0x08009d68   0x08009d68   0x00000048   Code   RO         1491    i.TP_Write_Byte     touch.o
    0x08009db0   0x08009db0   0x00000040   Code   RO         2982    i.Timer4_Init       usmart.o
    0x08009df0   0x08009df0   0x00000058   Code   RO          306    i.USART1_IRQHandler  usart.o
    0x08009e48   0x08009e48   0x00000060   Code   RO         2015    i.USART3_IRQHandler  usart3.o
    0x08009ea8   0x08009ea8   0x0000006c   Code   RO         1588    i.W25QXX_Erase_Sector  w25qxx.o
    0x08009f14   0x08009f14   0x0000006c   Code   RO         1589    i.W25QXX_Init       w25qxx.o
    0x08009f80   0x08009f80   0x00000068   Code   RO         1591    i.W25QXX_Read       w25qxx.o
    0x08009fe8   0x08009fe8   0x00000044   Code   RO         1592    i.W25QXX_ReadID     w25qxx.o
    0x0800a02c   0x0800a02c   0x00000038   Code   RO         1593    i.W25QXX_ReadSR     w25qxx.o
    0x0800a064   0x0800a064   0x0000000e   Code   RO         1595    i.W25QXX_Wait_Busy  w25qxx.o
    0x0800a072   0x0800a072   0x000000a6   Code   RO         1596    i.W25QXX_Write      w25qxx.o
    0x0800a118   0x0800a118   0x00000020   Code   RO         1598    i.W25QXX_Write_Enable  w25qxx.o
    0x0800a138   0x0800a138   0x0000003e   Code   RO         1599    i.W25QXX_Write_NoCheck  w25qxx.o
    0x0800a176   0x0800a176   0x00000002   PAD
    0x0800a178   0x0800a178   0x0000006c   Code   RO         1600    i.W25QXX_Write_Page  w25qxx.o
    0x0800a1e4   0x0800a1e4   0x00000030   Code   RO         3692    i.__ARM_fpclassify  m_wm.l(fpclassify.o)
    0x0800a214   0x0800a214   0x0000007a   Code   RO         3513    i.__hardfp_sqrt     m_wm.l(sqrt.o)
    0x0800a28e   0x0800a28e   0x0000000e   Code   RO         3454    i._is_digit         c_w.l(__printf_wp.o)
    0x0800a29c   0x0800a29c   0x00000002   Code   RO          307    i._sys_exit         usart.o
    0x0800a29e   0x0800a29e   0x00000002   PAD
    0x0800a2a0   0x0800a2a0   0x000007f0   Code   RO         3174    i.atk_8266_apsta_test  apsta.o
    0x0800aa90   0x0800aa90   0x00000034   Code   RO         3199    i.atk_8266_at_response  common.o
    0x0800aac4   0x0800aac4   0x00000028   Code   RO         3200    i.atk_8266_check_cmd  common.o
    0x0800aaec   0x0800aaec   0x00000040   Code   RO         3201    i.atk_8266_consta_check  common.o
    0x0800ab2c   0x0800ab2c   0x00000140   Code   RO         3202    i.atk_8266_get_ip   common.o
    0x0800ac6c   0x0800ac6c   0x000000c8   Code   RO         3203    i.atk_8266_get_keynum  common.o
    0x0800ad34   0x0800ad34   0x00000050   Code   RO         3204    i.atk_8266_get_wanip  common.o
    0x0800ad84   0x0800ad84   0x00000194   Code   RO         3205    i.atk_8266_ip_set   common.o
    0x0800af18   0x0800af18   0x0000009c   Code   RO         3206    i.atk_8266_key_staset  common.o
    0x0800afb4   0x0800afb4   0x0000010c   Code   RO         3207    i.atk_8266_load_keyboard  common.o
    0x0800b0c0   0x0800b0c0   0x00000260   Code   RO         3208    i.atk_8266_mode_cofig  common.o
    0x0800b320   0x0800b320   0x0000032c   Code   RO         3209    i.atk_8266_msg_show  common.o
    0x0800b64c   0x0800b64c   0x000000f8   Code   RO         3210    i.atk_8266_mtest_ui  common.o
    0x0800b744   0x0800b744   0x00000234   Code   RO         3211    i.atk_8266_netpro_sel  common.o
    0x0800b978   0x0800b978   0x00000050   Code   RO         3212    i.atk_8266_quit_trans  common.o
    0x0800b9c8   0x0800b9c8   0x0000006c   Code   RO         3213    i.atk_8266_send_cmd  common.o
    0x0800ba34   0x0800ba34   0x00000054   Code   RO         3214    i.atk_8266_send_data  common.o
    0x0800ba88   0x0800ba88   0x00000200   Code   RO         3215    i.atk_8266_test     common.o
    0x0800bc88   0x0800bc88   0x0000075c   Code   RO         3347    i.atk_8266_wifiap_test  wifiap.o
    0x0800c3e4   0x0800c3e4   0x000000e8   Code   RO         3216    i.atk_8266_wificonf_show  common.o
    0x0800c4cc   0x0800c4cc   0x000007cc   Code   RO         3371    i.atk_8266_wifista_test  wifista.o
    0x0800cc98   0x0800cc98   0x00000076   Code   RO         2484    i.change_bitmap     ff.o
    0x0800cd0e   0x0800cd0e   0x00000002   PAD
    0x0800cd10   0x0800cd10   0x00000074   Code   RO         2485    i.check_fs          ff.o
    0x0800cd84   0x0800cd84   0x00000010   Code   RO         2486    i.chk_chr           ff.o
    0x0800cd94   0x0800cd94   0x00000032   Code   RO         2487    i.clmt_clust        ff.o
    0x0800cdc6   0x0800cdc6   0x00000018   Code   RO         2488    i.clust2sect        ff.o
    0x0800cdde   0x0800cdde   0x00000002   PAD
    0x0800cde0   0x0800cde0   0x00000084   Code   RO         2489    i.cmp_lfn           ff.o
    0x0800ce64   0x0800ce64   0x0000010e   Code   RO         2490    i.create_chain      ff.o
    0x0800cf72   0x0800cf72   0x00000002   PAD
    0x0800cf74   0x0800cf74   0x00000218   Code   RO         2491    i.create_name       ff.o
    0x0800d18c   0x0800d18c   0x0000007c   Code   RO         2492    i.create_xdir       ff.o
    0x0800d208   0x0800d208   0x00000024   Code   RO          164    i.delay_init        delay.o
    0x0800d22c   0x0800d22c   0x00000034   Code   RO          165    i.delay_ms          delay.o
    0x0800d260   0x0800d260   0x00000028   Code   RO          166    i.delay_us          delay.o
    0x0800d288   0x0800d288   0x00000028   Code   RO          167    i.delay_xms         delay.o
    0x0800d2b0   0x0800d2b0   0x00000058   Code   RO         2493    i.dir_alloc         ff.o
    0x0800d308   0x0800d308   0x0000013c   Code   RO         2494    i.dir_find          ff.o
    0x0800d444   0x0800d444   0x00000104   Code   RO         2495    i.dir_next          ff.o
    0x0800d548   0x0800d548   0x000000e6   Code   RO         2496    i.dir_read          ff.o
    0x0800d62e   0x0800d62e   0x00000002   PAD
    0x0800d630   0x0800d630   0x0000023c   Code   RO         2497    i.dir_register      ff.o
    0x0800d86c   0x0800d86c   0x00000096   Code   RO         2499    i.dir_sdi           ff.o
    0x0800d902   0x0800d902   0x00000028   Code   RO         2418    i.disk_initialize   diskio.o
    0x0800d92a   0x0800d92a   0x00000002   PAD
    0x0800d92c   0x0800d92c   0x000000a4   Code   RO         2419    i.disk_ioctl        diskio.o
    0x0800d9d0   0x0800d9d0   0x00000066   Code   RO         2420    i.disk_read         diskio.o
    0x0800da36   0x0800da36   0x00000004   Code   RO         2421    i.disk_status       diskio.o
    0x0800da3a   0x0800da3a   0x00000066   Code   RO         2422    i.disk_write        diskio.o
    0x0800daa0   0x0800daa0   0x00000064   Code   RO         2154    i.exfuns_init       exfuns.o
    0x0800db04   0x0800db04   0x0000001e   Code   RO         2500    i.f_close           ff.o
    0x0800db22   0x0800db22   0x00000002   PAD
    0x0800db24   0x0800db24   0x0000004c   Code   RO         2508    i.f_mount           ff.o
    0x0800db70   0x0800db70   0x00000272   Code   RO         2509    i.f_open            ff.o
    0x0800dde2   0x0800dde2   0x00000176   Code   RO         2514    i.f_read            ff.o
    0x0800df58   0x0800df58   0x00000152   Code   RO         2519    i.f_sync            ff.o
    0x0800e0aa   0x0800e0aa   0x00000002   PAD
    0x0800e0ac   0x0800e0ac   0x00000070   Code   RO         2387    i.ff_convert        mycc936.o
    0x0800e11c   0x0800e11c   0x00000008   Code   RO         2423    i.ff_memalloc       diskio.o
    0x0800e124   0x0800e124   0x00000008   Code   RO         2424    i.ff_memfree        diskio.o
    0x0800e12c   0x0800e12c   0x00000024   Code   RO         2388    i.ff_wtoupper       mycc936.o
    0x0800e150   0x0800e150   0x0000002e   Code   RO         2523    i.fill_fat_chain    ff.o
    0x0800e17e   0x0800e17e   0x00000092   Code   RO         2524    i.find_bitmap       ff.o
    0x0800e210   0x0800e210   0x00000350   Code   RO         2525    i.find_volume       ff.o
    0x0800e560   0x0800e560   0x000000b4   Code   RO         2526    i.follow_path       ff.o
    0x0800e614   0x0800e614   0x00000040   Code   RO         2885    i.font_init         fontupd.o
    0x0800e654   0x0800e654   0x00000014   Code   RO          309    i.fputc             usart.o
    0x0800e668   0x0800e668   0x00000084   Code   RO         2886    i.fupd_prog         fontupd.o
    0x0800e6ec   0x0800e6ec   0x0000008c   Code   RO         2527    i.gen_numname       ff.o
    0x0800e778   0x0800e778   0x00000126   Code   RO         2528    i.get_fat           ff.o
    0x0800e89e   0x0800e89e   0x00000004   Code   RO         2425    i.get_fattime       diskio.o
    0x0800e8a2   0x0800e8a2   0x0000003c   Code   RO         2530    i.get_ldnumber      ff.o
    0x0800e8de   0x0800e8de   0x00000026   Code   RO         2532    i.ld_clust          ff.o
    0x0800e904   0x0800e904   0x00000016   Code   RO         2533    i.ld_dword          ff.o
    0x0800e91a   0x0800e91a   0x00000056   Code   RO         2534    i.ld_qword          ff.o
    0x0800e970   0x0800e970   0x0000000a   Code   RO         2535    i.ld_word           ff.o
    0x0800e97a   0x0800e97a   0x00000038   Code   RO         2536    i.load_obj_dir      ff.o
    0x0800e9b2   0x0800e9b2   0x000000aa   Code   RO         2537    i.load_xdir         ff.o
    0x0800ea5c   0x0800ea5c   0x00000214   Code   RO           13    i.main              test.o
    0x0800ec70   0x0800ec70   0x00000018   Code   RO         2538    i.mem_cmp           ff.o
    0x0800ec88   0x0800ec88   0x00000012   Code   RO         2539    i.mem_cpy           ff.o
    0x0800ec9a   0x0800ec9a   0x0000000c   Code   RO         2540    i.mem_set           ff.o
    0x0800eca6   0x0800eca6   0x00000032   Code   RO         2541    i.move_window       ff.o
    0x0800ecd8   0x0800ecd8   0x00000058   Code   RO         2065    i.my_mem_free       malloc.o
    0x0800ed30   0x0800ed30   0x0000002c   Code   RO         2066    i.my_mem_init       malloc.o
    0x0800ed5c   0x0800ed5c   0x00000088   Code   RO         2067    i.my_mem_malloc     malloc.o
    0x0800ede4   0x0800ede4   0x0000003c   Code   RO         2068    i.my_mem_perused    malloc.o
    0x0800ee20   0x0800ee20   0x00000018   Code   RO         2069    i.myfree            malloc.o
    0x0800ee38   0x0800ee38   0x00000020   Code   RO         2070    i.mymalloc          malloc.o
    0x0800ee58   0x0800ee58   0x0000000c   Code   RO         2072    i.mymemset          malloc.o
    0x0800ee64   0x0800ee64   0x00000070   Code   RO         2542    i.pick_lfn          ff.o
    0x0800eed4   0x0800eed4   0x000000f6   Code   RO         2543    i.put_fat           ff.o
    0x0800efca   0x0800efca   0x00000004   Code   RO         2983    i.read_addr         usmart.o
    0x0800efce   0x0800efce   0x000000e8   Code   RO         2545    i.remove_chain      ff.o
    0x0800f0b6   0x0800f0b6   0x00000028   Code   RO         2546    i.st_clust          ff.o
    0x0800f0de   0x0800f0de   0x00000010   Code   RO         2547    i.st_dword          ff.o
    0x0800f0ee   0x0800f0ee   0x0000004a   Code   RO         2548    i.st_qword          ff.o
    0x0800f138   0x0800f138   0x00000008   Code   RO         2549    i.st_word           ff.o
    0x0800f140   0x0800f140   0x0000006c   Code   RO         2550    i.store_xdir        ff.o
    0x0800f1ac   0x0800f1ac   0x0000001a   Code   RO         2551    i.sum_sfn           ff.o
    0x0800f1c6   0x0800f1c6   0x00000002   PAD
    0x0800f1c8   0x0800f1c8   0x00000088   Code   RO         2552    i.sync_fs           ff.o
    0x0800f250   0x0800f250   0x00000052   Code   RO         2553    i.sync_window       ff.o
    0x0800f2a2   0x0800f2a2   0x00000002   PAD
    0x0800f2a4   0x0800f2a4   0x00000040   Code   RO         2016    i.u3_printf         usart3.o
    0x0800f2e4   0x0800f2e4   0x000000dc   Code   RO          310    i.uart_init         usart.o
    0x0800f3c0   0x0800f3c0   0x000000f0   Code   RO         2887    i.updata_fontx      fontupd.o
    0x0800f4b0   0x0800f4b0   0x000001b0   Code   RO         2888    i.update_font       fontupd.o
    0x0800f660   0x0800f660   0x000000f8   Code   RO         2017    i.usart3_init       usart3.o
    0x0800f758   0x0800f758   0x00000094   Code   RO         2984    i.usmart_cmd_rec    usmart.o
    0x0800f7ec   0x0800f7ec   0x00000260   Code   RO         2985    i.usmart_exe        usmart.o
    0x0800fa4c   0x0800fa4c   0x000000a4   Code   RO         3095    i.usmart_get_aparm  usmart_str.o
    0x0800faf0   0x0800faf0   0x0000002e   Code   RO         3096    i.usmart_get_cmdname  usmart_str.o
    0x0800fb1e   0x0800fb1e   0x00000002   PAD
    0x0800fb20   0x0800fb20   0x00000168   Code   RO         3097    i.usmart_get_fname  usmart_str.o
    0x0800fc88   0x0800fc88   0x000000d0   Code   RO         3098    i.usmart_get_fparam  usmart_str.o
    0x0800fd58   0x0800fd58   0x00000024   Code   RO         3099    i.usmart_get_parmpos  usmart_str.o
    0x0800fd7c   0x0800fd7c   0x00000030   Code   RO         2986    i.usmart_get_runtime  usmart.o
    0x0800fdac   0x0800fdac   0x00000028   Code   RO         2987    i.usmart_init       usmart.o
    0x0800fdd4   0x0800fdd4   0x00000010   Code   RO         3100    i.usmart_pow        usmart_str.o
    0x0800fde4   0x0800fde4   0x0000002c   Code   RO         2988    i.usmart_reset_runtime  usmart.o
    0x0800fe10   0x0800fe10   0x000000a4   Code   RO         2989    i.usmart_scan       usmart.o
    0x0800feb4   0x0800feb4   0x00000010   Code   RO         3101    i.usmart_search_nextc  usmart_str.o
    0x0800fec4   0x0800fec4   0x000000d6   Code   RO         3102    i.usmart_str2num    usmart_str.o
    0x0800ff9a   0x0800ff9a   0x00000018   Code   RO         3103    i.usmart_strcmp     usmart_str.o
    0x0800ffb2   0x0800ffb2   0x00000012   Code   RO         3104    i.usmart_strcopy    usmart_str.o
    0x0800ffc4   0x0800ffc4   0x00000012   Code   RO         3105    i.usmart_strlen     usmart_str.o
    0x0800ffd6   0x0800ffd6   0x00000002   PAD
    0x0800ffd8   0x0800ffd8   0x00000680   Code   RO         2990    i.usmart_sys_cmd_exe  usmart.o
    0x08010658   0x08010658   0x00000032   Code   RO         2554    i.validate          ff.o
    0x0801068a   0x0801068a   0x00000004   Code   RO         2991    i.write_addr        usmart.o
    0x0801068e   0x0801068e   0x00000034   Code   RO         2555    i.xdir_sum          ff.o
    0x080106c2   0x080106c2   0x0000003c   Code   RO         2556    i.xname_sum         ff.o
    0x080106fe   0x080106fe   0x00000002   PAD
    0x08010700   0x08010700   0x0000002c   Code   RO         3676    locale$$code        c_w.l(lc_numeric_c.o)
    0x0801072c   0x0801072c   0x0000002c   Code   RO         3699    locale$$code        c_w.l(lc_ctype_c.o)
    0x08010758   0x08010758   0x00000150   Code   RO         3489    x$fpl$dadd          fz_wm.l(daddsub_clz.o)
    0x080108a8   0x080108a8   0x00000018   Code   RO         3580    x$fpl$dcmpinf       fz_wm.l(dcmpi.o)
    0x080108c0   0x080108c0   0x0000005a   Code   RO         3495    x$fpl$dfixu         fz_wm.l(dfixu.o)
    0x0801091a   0x0801091a   0x00000026   Code   RO         3499    x$fpl$dfltu         fz_wm.l(dflt_clz.o)
    0x08010940   0x08010940   0x00000078   Code   RO         3505    x$fpl$dleqf         fz_wm.l(dleqf.o)
    0x080109b8   0x080109b8   0x00000154   Code   RO         3507    x$fpl$dmul          fz_wm.l(dmul.o)
    0x08010b0c   0x08010b0c   0x0000009c   Code   RO         3582    x$fpl$dnaninf       fz_wm.l(dnaninf.o)
    0x08010ba8   0x08010ba8   0x0000000c   Code   RO         3584    x$fpl$dretinf       fz_wm.l(dretinf.o)
    0x08010bb4   0x08010bb4   0x0000006c   Code   RO         3509    x$fpl$drleqf        fz_wm.l(drleqf.o)
    0x08010c20   0x08010c20   0x00000016   Code   RO         3490    x$fpl$drsb          fz_wm.l(daddsub_clz.o)
    0x08010c36   0x08010c36   0x00000002   PAD
    0x08010c38   0x08010c38   0x00000198   Code   RO         3586    x$fpl$dsqrt         fz_wm.l(dsqrt_umaal.o)
    0x08010dd0   0x08010dd0   0x000001d4   Code   RO         3491    x$fpl$dsub          fz_wm.l(daddsub_clz.o)
    0x08010fa4   0x08010fa4   0x00000056   Code   RO         3511    x$fpl$f2d           fz_wm.l(f2d.o)
    0x08010ffa   0x08010ffa   0x0000008c   Code   RO         3588    x$fpl$fnaninf       fz_wm.l(fnaninf.o)
    0x08011086   0x08011086   0x0000000a   Code   RO         3763    x$fpl$fpinit        fz_wm.l(fpinit.o)
    0x08011090   0x08011090   0x00000004   Code   RO         3590    x$fpl$printf1       fz_wm.l(printf1.o)
    0x08011094   0x08011094   0x00000004   Code   RO         3592    x$fpl$printf2       fz_wm.l(printf2.o)
    0x08011098   0x08011098   0x00000000   Code   RO         3598    x$fpl$usenofp       fz_wm.l(usenofp.o)
    0x08011098   0x08011098   0x00004740   Data   RO          567    .constdata          lcd.o
    0x080157d8   0x080157d8   0x0000000a   Data   RO         1333    .constdata          ft5206.o
    0x080157e2   0x080157e2   0x000000c2   Data   RO         1380    .constdata          gt9147.o
    0x080158a4   0x080158a4   0x0000000a   Data   RO         1432    .constdata          ott2001a.o
    0x080158ae   0x080158ae   0x00000002   PAD
    0x080158b0   0x080158b0   0x00000004   Data   RO         1492    .constdata          touch.o
    0x080158b4   0x080158b4   0x00000024   Data   RO         2080    .constdata          malloc.o
    0x080158d8   0x080158d8   0x000003c0   Data   RO         2389    .constdata          mycc936.o
    0x08015c98   0x08015c98   0x0000004a   Data   RO         2558    .constdata          ff.o
    0x08015ce2   0x08015ce2   0x00000002   PAD
    0x08015ce4   0x08015ce4   0x00000028   Data   RO         2890    .constdata          fontupd.o
    0x08015d0c   0x08015d0c   0x00000028   Data   RO         3442    .constdata          c_w.l(_printf_hex_int_ll_ptr.o)
    0x08015d34   0x08015d34   0x00000011   Data   RO         3462    .constdata          c_w.l(__printf_flags_ss_wp.o)
    0x08015d45   0x08015d45   0x00000003   PAD
    0x08015d48   0x08015d48   0x00000008   Data   RO         3551    .constdata          c_w.l(_printf_wctomb.o)
    0x08015d50   0x08015d50   0x00000026   Data   RO         3624    .constdata          c_w.l(_printf_fp_hex.o)
    0x08015d76   0x08015d76   0x00000002   PAD
    0x08015d78   0x08015d78   0x00000094   Data   RO         3651    .constdata          c_w.l(bigflt0.o)
    0x08015e0c   0x08015e0c   0x00000079   Data   RO         1493    .conststring        touch.o
    0x08015e85   0x08015e85   0x00000003   PAD
    0x08015e88   0x08015e88   0x000000db   Data   RO         2891    .conststring        fontupd.o
    0x08015f63   0x08015f63   0x00000001   PAD
    0x08015f64   0x08015f64   0x00000028   Data   RO         2992    .conststring        usmart.o
    0x08015f8c   0x08015f8c   0x00000090   Data   RO         3069    .conststring        usmart_config.o
    0x0801601c   0x0801601c   0x000000a4   Data   RO         3217    .conststring        common.o
    0x080160c0   0x080160c0   0x00000009   Data   RO         3218    .conststring        common.o
    0x080160c9   0x080160c9   0x00000003   PAD
    0x080160cc   0x080160cc   0x0000000c   Data   RO         3219    .conststring        common.o
    0x080160d8   0x080160d8   0x0000000c   Data   RO         3220    .conststring        common.o
    0x080160e4   0x080160e4   0x00000022   Data   RO         3222    .conststring        common.o
    0x08016106   0x08016106   0x00000002   PAD
    0x08016108   0x08016108   0x00000020   Data   RO         3815    Region$$Table       anon$$obj.o
    0x08016128   0x08016128   0x0000001c   Data   RO         3675    locale$$data        c_w.l(lc_numeric_c.o)
    0x08016144   0x08016144   0x00000110   Data   RO         3698    locale$$data        c_w.l(lc_ctype_c.o)


    Execution Region RW_IRAM1 (Exec base: 0x20000000, Load base: 0x08016254, Size: 0x0002bd28, Max: 0x00030000, ABSOLUTE, COMPRESSED[0x000000e4])

    Exec Addr    Load Addr    Size         Type   Attr      Idx    E Section Name        Object

    0x20000000   COMPRESSED   0x00000004   Data   RW          168    .data               delay.o
    0x20000004   COMPRESSED   0x00000002   Data   RW          312    .data               usart.o
    0x20000006   COMPRESSED   0x00000002   PAD
    0x20000008   COMPRESSED   0x00000004   Data   RW          313    .data               usart.o
    0x2000000c   COMPRESSED   0x00000001   Data   RW          506    .data               key.o
    0x2000000d   COMPRESSED   0x00000003   PAD
    0x20000010   COMPRESSED   0x00000008   Data   RW          568    .data               lcd.o
    0x20000018   COMPRESSED   0x00000008   Data   RW          767    .data               ltdc.o
    0x20000020   COMPRESSED   0x0000000c   Data   RW          913    .data               sdio_sdcard.o
    0x2000002c   COMPRESSED   0x00000008   Data   RW         1189    .data               timer.o
    0x20000034   COMPRESSED   0x00000001   Data   RW         1334    .data               ft5206.o
    0x20000035   COMPRESSED   0x00000001   Data   RW         1381    .data               gt9147.o
    0x20000036   COMPRESSED   0x00000001   Data   RW         1433    .data               ott2001a.o
    0x20000037   COMPRESSED   0x00000001   PAD
    0x20000038   COMPRESSED   0x00000038   Data   RW         1494    .data               touch.o
    0x20000070   COMPRESSED   0x00000002   Data   RW         1602    .data               w25qxx.o
    0x20000072   COMPRESSED   0x00000002   PAD
    0x20000074   COMPRESSED   0x00000004   Data   RW         1713    .data               ftl.o
    0x20000078   COMPRESSED   0x00000002   Data   RW         2019    .data               usart3.o
    0x2000007a   COMPRESSED   0x00000002   PAD
    0x2000007c   COMPRESSED   0x00000024   Data   RW         2081    .data               malloc.o
    0x200000a0   COMPRESSED   0x0000000c   Data   RW         2161    .data               exfuns.o
    0x200000ac   COMPRESSED   0x00000002   Data   RW         2559    .data               ff.o
    0x200000ae   COMPRESSED   0x00000002   PAD
    0x200000b0   COMPRESSED   0x0000001c   Data   RW         2993    .data               usmart.o
    0x200000cc   COMPRESSED   0x00000020   Data   RW         3070    .data               usmart_config.o
    0x200000ec   COMPRESSED   0x000000f4   Data   RW         3071    .data               usmart_config.o
    0x200001e0   COMPRESSED   0x0000006c   Data   RW         3223    .data               common.o
    0x2000024c   COMPRESSED   0x00000004   Data   RW         3224    .data               common.o
    0x20000250   COMPRESSED   0x00000004   Data   RW         3225    .data               common.o
    0x20000254   COMPRESSED   0x00000004   Data   RW         3226    .data               common.o
    0x20000258   COMPRESSED   0x00000004   Data   RW         3227    .data               common.o
    0x2000025c   COMPRESSED   0x0000000c   Data   RW         3228    .data               common.o
    0x20000268   COMPRESSED   0x00000001   Data   RW         3372    .data               wifista.o
    0x20000269   COMPRESSED   0x00000003   PAD
    0x2000026c        -       0x000000c8   Zero   RW          311    .bss                usart.o
    0x20000334        -       0x0000000e   Zero   RW          566    .bss                lcd.o
    0x20000342   COMPRESSED   0x00000002   PAD
    0x20000344        -       0x00000020   Zero   RW          766    .bss                ltdc.o
    0x20000364   COMPRESSED   0x00000004   PAD
    0x20000368        -       0x00000278   Zero   RW          912    .bss                sdio_sdcard.o
    0x200005e0        -       0x0000005c   Zero   RW         1828    .bss                nand.o
    0x2000063c   COMPRESSED   0x00000004   PAD
    0x20000640        -       0x00000640   Zero   RW         2018    .bss                usart3.o
    0x20000c80        -       0x00028000   Zero   RW         2078    .bss                malloc.o
    0x20028c80        -       0x00002800   Zero   RW         2079    .bss                malloc.o
    0x2002b480        -       0x0000000c   Zero   RW         2156    .bss                exfuns.o
    0x2002b48c        -       0x0000000c   Zero   RW         2557    .bss                ff.o
    0x2002b498        -       0x00000029   Zero   RW         2889    .bss                fontupd.o
    0x2002b4c1   COMPRESSED   0x00000003   PAD
    0x2002b4c4        -       0x00000060   Zero   RW         3637    .bss                c_w.l(libspace.o)
    0x2002b524   COMPRESSED   0x00000004   PAD
    0x2002b528        -       0x00000000   Zero   RW            2    HEAP                startup_stm32f429xx.o
    0x2002b528        -       0x00000800   Zero   RW            1    STACK               startup_stm32f429xx.o



  Load Region LR$$.ARM.__AT_0x10000000 (Base: 0x10000000, Size: 0x00000000, Max: 0x0000f000, ABSOLUTE)

    Execution Region ER$$.ARM.__AT_0x10000000 (Exec base: 0x10000000, Load base: 0x10000000, Size: 0x0000f000, Max: 0x0000f000, ABSOLUTE, UNINIT)

    Exec Addr    Load Addr    Size         Type   Attr      Idx    E Section Name        Object

    0x10000000        -       0x0000f000   Zero   RW         2074    .ARM.__AT_0x10000000  malloc.o



  Load Region LR$$.ARM.__AT_0x1000F000 (Base: 0x1000f000, Size: 0x00000000, Max: 0x00000f00, ABSOLUTE)

    Execution Region ER$$.ARM.__AT_0x1000F000 (Exec base: 0x1000f000, Load base: 0x1000f000, Size: 0x00000f00, Max: 0x00000f00, ABSOLUTE, UNINIT)

    Exec Addr    Load Addr    Size         Type   Attr      Idx    E Section Name        Object

    0x1000f000        -       0x00000f00   Zero   RW         2075    .ARM.__AT_0x1000F000  malloc.o



  Load Region LR$$.ARM.__AT_0xC0000000 (Base: 0xc0000000, Size: 0x00000000, Max: 0x001f4000, ABSOLUTE)

    Execution Region ER$$.ARM.__AT_0xC0000000 (Exec base: 0xc0000000, Load base: 0xc0000000, Size: 0x001f4000, Max: 0x001f4000, ABSOLUTE, UNINIT)

    Exec Addr    Load Addr    Size         Type   Attr      Idx    E Section Name        Object

    0xc0000000        -       0x001f4000   Zero   RW          765    .ARM.__AT_0xC0000000  ltdc.o



  Load Region LR$$.ARM.__AT_0xC01F4000 (Base: 0xc01f4000, Size: 0x00000000, Max: 0x01c3c000, ABSOLUTE)

    Execution Region ER$$.ARM.__AT_0xC01F4000 (Exec base: 0xc01f4000, Load base: 0xc01f4000, Size: 0x01c3c000, Max: 0x01c3c000, ABSOLUTE, UNINIT)

    Exec Addr    Load Addr    Size         Type   Attr      Idx    E Section Name        Object

    0xc01f4000        -       0x01c3c000   Zero   RW         2076    .ARM.__AT_0xC01F4000  malloc.o



  Load Region LR$$.ARM.__AT_0xC1E30000 (Base: 0xc1e30000, Size: 0x00000000, Max: 0x001c3c00, ABSOLUTE)

    Execution Region ER$$.ARM.__AT_0xC1E30000 (Exec base: 0xc1e30000, Load base: 0xc1e30000, Size: 0x001c3c00, Max: 0x001c3c00, ABSOLUTE, UNINIT)

    Exec Addr    Load Addr    Size         Type   Attr      Idx    E Section Name        Object

    0xc1e30000        -       0x001c3c00   Zero   RW         2077    .ARM.__AT_0xC1E30000  malloc.o


==============================================================================

Image component sizes


      Code (inc. data)   RO Data    RW Data    ZI Data      Debug   Object Name

       216          0          0          0          0       3629   24cxx.o
      2032        734          0          0          0       2114   apsta.o
      4832       1198        231        136          0      17070   common.o
       668        104          0          0          0       6125   ctiic.o
       168         12          0          4          0       2899   delay.o
       432          8          0          0          0       7287   diskio.o
       100          8          0         12         12       4407   exfuns.o
      7888         88         74          2         12      55821   ff.o
       868         62        259          0         41       6288   fontupd.o
       698         44         10          1          0       4365   ft5206.o
      1904        296          0          4          0      12743   ftl.o
      1014         80        194          1          0       5390   gt9147.o
       260         32          0          1          0       1442   key.o
     11830        188      18240          8         14      25295   lcd.o
        56         12          0          0          0        567   led.o
      1752        136          0          8    2048032      11062   ltdc.o
       396         42         36         36   31695616       7409   malloc.o
       148         14        960          0          0       2195   mycc936.o
       600         74          0          0          0       5250   myiic.o
      2724        290          0          0         92      18943   nand.o
       744         66         10          1          0       5027   ott2001a.o
      4202        242          0         12        632      34084   sdio_sdcard.o
       710         30          0          0          0       1782   sdram.o
       204         24          0          0          0       2300   spi.o
        68         24        428          0       2048        924   startup_stm32f429xx.o
       582         44          0          0          0       7005   sys.o
       532        134          0          0          0     277539   test.o
       582         20          0          0          0       4754   text.o
       308         38          0          8          0       2948   timer.o
      3096        246        125         56          0      12453   touch.o
       330         36          0          6        200       4736   usart.o
       408         50          0          2       1600       3762   usart3.o
      2840       1352         40         28          0       8966   usmart.o
         0          0        144        276          0       1780   usmart_config.o
      1120         20          0          0          0      10563   usmart_str.o
       826         70          0          2          0       8403   w25qxx.o
      1884        578          0          0          0       2227   wifiap.o
      1996        628          0          1          0       2553   wifista.o

    ----------------------------------------------------------------------
     59064       7024      20796        620   33748312     592107   Object Totals
         0          0         32          0          0          0   (incl. Generated)
        46          0         13         15         13          0   (incl. Padding)

    ----------------------------------------------------------------------

      Code (inc. data)   RO Data    RW Data    ZI Data      Debug   Library Member Name

        24          4          0          0          0         84   __2printf.o
        44          6          0          0          0         84   __2sprintf.o
        90          0          0          0          0          0   __dczerorl2.o
         8          0          0          0          0         68   __main.o
       392          4         17          0          0         92   __printf_flags_ss_wp.o
        14          0          0          0          0         68   __printf_wp.o
         0          0          0          0          0          0   __rtentry.o
        12          0          0          0          0          0   __rtentry2.o
         6          0          0          0          0          0   __rtentry4.o
        52          8          0          0          0          0   __scatter.o
        28          0          0          0          0          0   __scatter_zi.o
         6          0          0          0          0          0   _printf_a.o
         6          0          0          0          0          0   _printf_c.o
        44          0          0          0          0        108   _printf_char.o
        48          6          0          0          0         96   _printf_char_common.o
        36          4          0          0          0         80   _printf_char_file.o
        40          0          0          0          0         68   _printf_charcount.o
         6          0          0          0          0          0   _printf_d.o
       120         16          0          0          0         92   _printf_dec.o
         6          0          0          0          0          0   _printf_e.o
         6          0          0          0          0          0   _printf_f.o
      1050          0          0          0          0        216   _printf_fp_dec.o
       764         10         38          0          0        100   _printf_fp_hex.o
       128         16          0          0          0         84   _printf_fp_infnan.o
         6          0          0          0          0          0   _printf_g.o
       148          4         40          0          0        160   _printf_hex_int_ll_ptr.o
         6          0          0          0          0          0   _printf_i.o
       178          0          0          0          0         88   _printf_intcommon.o
        10          0          0          0          0          0   _printf_l.o
         6          0          0          0          0          0   _printf_lc.o
        10          0          0          0          0          0   _printf_ll.o
         6          0          0          0          0          0   _printf_lld.o
         6          0          0          0          0          0   _printf_lli.o
         6          0          0          0          0          0   _printf_llo.o
         6          0          0          0          0          0   _printf_llu.o
         6          0          0          0          0          0   _printf_llx.o
       124         16          0          0          0         92   _printf_longlong_dec.o
         6          0          0          0          0          0   _printf_ls.o
         6          0          0          0          0          0   _printf_n.o
         6          0          0          0          0          0   _printf_o.o
       112          8          0          0          0        124   _printf_oct_int_ll.o
         6          0          0          0          0          0   _printf_p.o
        78          0          0          0          0        108   _printf_pad.o
         0          0          0          0          0          0   _printf_percent.o
         4          0          0          0          0          0   _printf_percent_end.o
         6          0          0          0          0          0   _printf_s.o
        82          0          0          0          0         80   _printf_str.o
        36          0          0          0          0         84   _printf_truncate.o
         6          0          0          0          0          0   _printf_u.o
        44          0          0          0          0        108   _printf_wchar.o
       188          6          8          0          0         92   _printf_wctomb.o
         6          0          0          0          0          0   _printf_x.o
        22          0          0          0          0        100   _rserrno.o
        10          0          0          0          0         68   _sputc.o
        64          0          0          0          0         92   _wcrtomb.o
       220          4        148          0          0         96   bigflt0.o
      1910        128          0          0          0        672   btod.o
        18          0          0          0          0         80   exit.o
         8          0          0          0          0         68   ferror.o
         6          0          0          0          0        152   heapauxi.o
        44         10        272          0          0         76   lc_ctype_c.o
        44         10         28          0          0         76   lc_numeric_c.o
         2          0          0          0          0          0   libinit.o
        34          0          0          0          0          0   libinit2.o
         2          0          0          0          0          0   libshutdown.o
         2          0          0          0          0          0   libshutdown2.o
         8          4          0          0         96         68   libspace.o
        72          0          0          0          0         76   llsdiv.o
       138          0          0          0          0         80   lludiv10.o
       238          0          0          0          0        100   lludivv7m.o
        16          4          0          0          0         76   rt_ctype_table.o
         8          4          0          0          0         68   rt_errno_addr_intlibspace.o
         8          4          0          0          0         68   rt_locale_intlibspace.o
        68          0          0          0          0         68   rt_memclr.o
        78          0          0          0          0         80   rt_memclr_w.o
       138          0          0          0          0         68   rt_memcpy_v6.o
       100          0          0          0          0         80   rt_memcpy_w.o
         2          0          0          0          0          0   rtexit.o
        10          0          0          0          0          0   rtexit2.o
        24          0          0          0          0         68   strcat.o
       128          0          0          0          0         68   strcmpv7m.o
        72          0          0          0          0         80   strcpy.o
        62          0          0          0          0         76   strlen.o
        36          0          0          0          0         80   strstr.o
        74          0          0          0          0         80   sys_stackheap_outer.o
         2          0          0          0          0         68   use_no_semi.o
         2          0          0          0          0         68   use_no_semi_2.o
        36          4          0          0          0         76   vsprintf.o
       826         16          0          0          0        492   daddsub_clz.o
        24          0          0          0          0        116   dcmpi.o
        90          4          0          0          0        140   dfixu.o
        38          0          0          0          0        116   dflt_clz.o
       120          4          0          0          0        140   dleqf.o
       340         12          0          0          0        152   dmul.o
       156          4          0          0          0        140   dnaninf.o
        12          0          0          0          0        116   dretinf.o
       108          0          0          0          0        128   drleqf.o
       408         56          0          0          0        168   dsqrt_umaal.o
        86          4          0          0          0        132   f2d.o
       140          4          0          0          0        132   fnaninf.o
        10          0          0          0          0        116   fpinit.o
         4          0          0          0          0        116   printf1.o
         4          0          0          0          0        116   printf2.o
         0          0          0          0          0          0   usenofp.o
        48          0          0          0          0        124   fpclassify.o
       122          0          0          0          0        148   sqrt.o

    ----------------------------------------------------------------------
     10292        384        556          0        100       7744   Library Totals
        16          0          5          0          4          0   (incl. Padding)

    ----------------------------------------------------------------------

      Code (inc. data)   RO Data    RW Data    ZI Data      Debug   Library Name

      7740        280        551          0         96       5152   c_w.l
      2366        104          0          0          0       2320   fz_wm.l
       170          0          0          0          0        272   m_wm.l

    ----------------------------------------------------------------------
     10292        384        556          0        100       7744   Library Totals

    ----------------------------------------------------------------------

==============================================================================


      Code (inc. data)   RO Data    RW Data    ZI Data      Debug   

     69356       7408      21352        620   33748412     566039   Grand Totals
     69356       7408      21352        228   33748412     566039   ELF Image Totals (compressed)
     69356       7408      21352        228          0          0   ROM Totals

==============================================================================

    Total RO  Size (Code + RO Data)                90708 (  88.58kB)
    Total RW  Size (RW Data + ZI Data)          33749032 (32958.04kB)
    Total ROM Size (Code + RO Data + RW Data)      90936 (  88.80kB)

==============================================================================

